SF:/Users/tt/workspace/claude-scheduler/src/cli_commands.rs
FN:90,_RNCNCNvNtCs9tQrTLhafAq_16claude_scheduler12cli_commands16schedule_command00B7_
FN:67,_RNCNvNtCs9tQrTLhafAq_16claude_scheduler12cli_commands16schedule_command0B5_
FN:141,_RNCNvNtCs9tQrTLhafAq_16claude_scheduler12cli_commands24execute_command_internal0B5_
FN:19,_RNCNvNtCs9tQrTLhafAq_16claude_scheduler12cli_commands25execute_command_immediate0B5_
FN:56,_RNvNtCs9tQrTLhafAq_16claude_scheduler12cli_commands16schedule_command
FN:135,_RNvNtCs9tQrTLhafAq_16claude_scheduler12cli_commands24execute_command_internal
FN:11,_RNvNtCs9tQrTLhafAq_16claude_scheduler12cli_commands25execute_command_immediate
FN:90,_RNCNCNvNtCs5mxsGHxdp9x_16claude_scheduler12cli_commands16schedule_command00B7_
FN:67,_RNCNvNtCs5mxsGHxdp9x_16claude_scheduler12cli_commands16schedule_command0B5_
FN:141,_RNCNvNtCs5mxsGHxdp9x_16claude_scheduler12cli_commands24execute_command_internal0B5_
FN:19,_RNCNvNtCs5mxsGHxdp9x_16claude_scheduler12cli_commands25execute_command_immediate0B5_
FN:56,_RNvNtCs5mxsGHxdp9x_16claude_scheduler12cli_commands16schedule_command
FN:135,_RNvNtCs5mxsGHxdp9x_16claude_scheduler12cli_commands24execute_command_internal
FN:11,_RNvNtCs5mxsGHxdp9x_16claude_scheduler12cli_commands25execute_command_immediate
FNDA:0,_RNCNCNvNtCs9tQrTLhafAq_16claude_scheduler12cli_commands16schedule_command00B7_
FNDA:0,_RNCNvNtCs9tQrTLhafAq_16claude_scheduler12cli_commands16schedule_command0B5_
FNDA:0,_RNCNvNtCs9tQrTLhafAq_16claude_scheduler12cli_commands24execute_command_internal0B5_
FNDA:0,_RNCNvNtCs9tQrTLhafAq_16claude_scheduler12cli_commands25execute_command_immediate0B5_
FNDA:0,_RNvNtCs9tQrTLhafAq_16claude_scheduler12cli_commands16schedule_command
FNDA:0,_RNvNtCs9tQrTLhafAq_16claude_scheduler12cli_commands24execute_command_internal
FNDA:0,_RNvNtCs9tQrTLhafAq_16claude_scheduler12cli_commands25execute_command_immediate
FNDA:0,_RNCNCNvNtCs5mxsGHxdp9x_16claude_scheduler12cli_commands16schedule_command00B7_
FNDA:0,_RNCNvNtCs5mxsGHxdp9x_16claude_scheduler12cli_commands16schedule_command0B5_
FNDA:0,_RNCNvNtCs5mxsGHxdp9x_16claude_scheduler12cli_commands24execute_command_internal0B5_
FNDA:0,_RNCNvNtCs5mxsGHxdp9x_16claude_scheduler12cli_commands25execute_command_immediate0B5_
FNDA:0,_RNvNtCs5mxsGHxdp9x_16claude_scheduler12cli_commands16schedule_command
FNDA:0,_RNvNtCs5mxsGHxdp9x_16claude_scheduler12cli_commands24execute_command_internal
FNDA:0,_RNvNtCs5mxsGHxdp9x_16claude_scheduler12cli_commands25execute_command_immediate
FNF:7
FNH:0
DA:11,0
DA:12,0
DA:13,0
DA:14,0
DA:15,0
DA:16,0
DA:17,0
DA:18,0
DA:19,0
DA:20,0
DA:21,0
DA:22,0
DA:24,0
DA:27,0
DA:30,0
DA:31,0
DA:32,0
DA:33,0
DA:34,0
DA:36,0
DA:37,0
DA:38,0
DA:39,0
DA:40,0
DA:41,0
DA:42,0
DA:43,0
DA:44,0
DA:46,0
DA:48,0
DA:49,0
DA:50,0
DA:52,0
DA:53,0
DA:56,0
DA:57,0
DA:58,0
DA:59,0
DA:60,0
DA:61,0
DA:62,0
DA:63,0
DA:64,0
DA:65,0
DA:66,0
DA:67,0
DA:69,0
DA:70,0
DA:71,0
DA:72,0
DA:73,0
DA:77,0
DA:78,0
DA:79,0
DA:80,0
DA:82,0
DA:83,0
DA:85,0
DA:86,0
DA:87,0
DA:89,0
DA:90,0
DA:92,0
DA:93,0
DA:96,0
DA:97,0
DA:98,0
DA:100,0
DA:103,0
DA:107,0
DA:108,0
DA:109,0
DA:110,0
DA:112,0
DA:113,0
DA:114,0
DA:115,0
DA:116,0
DA:117,0
DA:118,0
DA:119,0
DA:120,0
DA:121,0
DA:124,0
DA:126,0
DA:127,0
DA:128,0
DA:129,0
DA:130,0
DA:132,0
DA:133,0
DA:135,0
DA:136,0
DA:137,0
DA:138,0
DA:139,0
DA:140,0
DA:141,0
DA:142,0
DA:143,0
DA:144,0
DA:145,0
DA:146,0
DA:148,0
DA:149,0
DA:150,0
DA:153,0
DA:154,0
DA:155,0
DA:156,0
DA:157,0
DA:158,0
DA:159,0
DA:160,0
DA:161,0
DA:164,0
DA:165,0
DA:166,0
DA:168,0
DA:170,0
DA:171,0
DA:173,0
DA:174,0
DA:176,0
DA:180,0
DA:181,0
DA:182,0
DA:183,0
DA:184,0
DA:185,0
DA:186,0
DA:187,0
DA:188,0
DA:189,0
DA:190,0
DA:194,0
DA:195,0
DA:196,0
DA:197,0
DA:198,0
DA:199,0
DA:200,0
DA:201,0
DA:202,0
DA:203,0
DA:209,0
DA:210,0
DA:211,0
BRF:0
BRH:0
LF:152
LH:0
end_of_record
SF:/Users/tt/workspace/claude-scheduler/src/cli_handlers.rs
FN:114,_RNCNCNvNtCs9tQrTLhafAq_16claude_scheduler12cli_handlers12show_history00B7_
FN:131,_RNCNCNvNtCs9tQrTLhafAq_16claude_scheduler12cli_handlers12show_history0s0_0B7_
FN:120,_RNCNCNvNtCs9tQrTLhafAq_16claude_scheduler12cli_handlers12show_history0s_0B7_
FN:210,_RNCNvNtCs9tQrTLhafAq_16claude_scheduler12cli_handlers10run_daemon0B5_
FN:110,_RNCNvNtCs9tQrTLhafAq_16claude_scheduler12cli_handlers12show_history0B5_
FN:14,_RNCNvNtCs9tQrTLhafAq_16claude_scheduler12cli_handlers14list_schedules0B5_
FN:203,_RNvNtCs9tQrTLhafAq_16claude_scheduler12cli_handlers10run_daemon
FN:101,_RNvNtCs9tQrTLhafAq_16claude_scheduler12cli_handlers12show_history
FN:9,_RNvNtCs9tQrTLhafAq_16claude_scheduler12cli_handlers14list_schedules
FN:114,_RNCNCNvNtCs5mxsGHxdp9x_16claude_scheduler12cli_handlers12show_history00B7_
FN:131,_RNCNCNvNtCs5mxsGHxdp9x_16claude_scheduler12cli_handlers12show_history0s0_0B7_
FN:120,_RNCNCNvNtCs5mxsGHxdp9x_16claude_scheduler12cli_handlers12show_history0s_0B7_
FN:210,_RNCNvNtCs5mxsGHxdp9x_16claude_scheduler12cli_handlers10run_daemon0B5_
FN:110,_RNCNvNtCs5mxsGHxdp9x_16claude_scheduler12cli_handlers12show_history0B5_
FN:14,_RNCNvNtCs5mxsGHxdp9x_16claude_scheduler12cli_handlers14list_schedules0B5_
FN:203,_RNvNtCs5mxsGHxdp9x_16claude_scheduler12cli_handlers10run_daemon
FN:101,_RNvNtCs5mxsGHxdp9x_16claude_scheduler12cli_handlers12show_history
FN:9,_RNvNtCs5mxsGHxdp9x_16claude_scheduler12cli_handlers14list_schedules
FNDA:0,_RNCNCNvNtCs9tQrTLhafAq_16claude_scheduler12cli_handlers12show_history00B7_
FNDA:0,_RNCNCNvNtCs9tQrTLhafAq_16claude_scheduler12cli_handlers12show_history0s0_0B7_
FNDA:0,_RNCNCNvNtCs9tQrTLhafAq_16claude_scheduler12cli_handlers12show_history0s_0B7_
FNDA:0,_RNCNvNtCs9tQrTLhafAq_16claude_scheduler12cli_handlers10run_daemon0B5_
FNDA:0,_RNCNvNtCs9tQrTLhafAq_16claude_scheduler12cli_handlers12show_history0B5_
FNDA:0,_RNCNvNtCs9tQrTLhafAq_16claude_scheduler12cli_handlers14list_schedules0B5_
FNDA:0,_RNvNtCs9tQrTLhafAq_16claude_scheduler12cli_handlers10run_daemon
FNDA:0,_RNvNtCs9tQrTLhafAq_16claude_scheduler12cli_handlers12show_history
FNDA:0,_RNvNtCs9tQrTLhafAq_16claude_scheduler12cli_handlers14list_schedules
FNDA:0,_RNCNCNvNtCs5mxsGHxdp9x_16claude_scheduler12cli_handlers12show_history00B7_
FNDA:0,_RNCNCNvNtCs5mxsGHxdp9x_16claude_scheduler12cli_handlers12show_history0s0_0B7_
FNDA:0,_RNCNCNvNtCs5mxsGHxdp9x_16claude_scheduler12cli_handlers12show_history0s_0B7_
FNDA:0,_RNCNvNtCs5mxsGHxdp9x_16claude_scheduler12cli_handlers10run_daemon0B5_
FNDA:0,_RNCNvNtCs5mxsGHxdp9x_16claude_scheduler12cli_handlers12show_history0B5_
FNDA:0,_RNCNvNtCs5mxsGHxdp9x_16claude_scheduler12cli_handlers14list_schedules0B5_
FNDA:0,_RNvNtCs5mxsGHxdp9x_16claude_scheduler12cli_handlers10run_daemon
FNDA:0,_RNvNtCs5mxsGHxdp9x_16claude_scheduler12cli_handlers12show_history
FNDA:0,_RNvNtCs5mxsGHxdp9x_16claude_scheduler12cli_handlers14list_schedules
FNF:9
FNH:0
DA:9,0
DA:10,0
DA:11,0
DA:12,0
DA:13,0
DA:14,0
DA:15,0
DA:16,0
DA:18,0
DA:19,0
DA:20,0
DA:21,0
DA:23,0
DA:24,0
DA:25,0
DA:26,0
DA:27,0
DA:28,0
DA:29,0
DA:30,0
DA:31,0
DA:32,0
DA:33,0
DA:35,0
DA:36,0
DA:37,0
DA:38,0
DA:39,0
DA:40,0
DA:41,0
DA:42,0
DA:44,0
DA:46,0
DA:47,0
DA:48,0
DA:51,0
DA:55,0
DA:56,0
DA:57,0
DA:59,0
DA:60,0
DA:61,0
DA:62,0
DA:63,0
DA:66,0
DA:67,0
DA:68,0
DA:70,0
DA:73,0
DA:74,0
DA:76,0
DA:79,0
DA:80,0
DA:81,0
DA:82,0
DA:83,0
DA:84,0
DA:85,0
DA:87,0
DA:89,0
DA:93,0
DA:97,0
DA:98,0
DA:101,0
DA:102,0
DA:103,0
DA:104,0
DA:105,0
DA:106,0
DA:107,0
DA:108,0
DA:109,0
DA:110,0
DA:111,0
DA:112,0
DA:114,0
DA:115,0
DA:116,0
DA:117,0
DA:118,0
DA:119,0
DA:120,0
DA:121,0
DA:122,0
DA:123,0
DA:124,0
DA:125,0
DA:127,0
DA:128,0
DA:129,0
DA:130,0
DA:131,0
DA:132,0
DA:133,0
DA:134,0
DA:136,0
DA:138,0
DA:139,0
DA:140,0
DA:141,0
DA:143,0
DA:144,0
DA:145,0
DA:146,0
DA:147,0
DA:148,0
DA:149,0
DA:150,0
DA:151,0
DA:152,0
DA:153,0
DA:155,0
DA:156,0
DA:157,0
DA:158,0
DA:159,0
DA:160,0
DA:161,0
DA:162,0
DA:163,0
DA:164,0
DA:167,0
DA:171,0
DA:172,0
DA:173,0
DA:175,0
DA:176,0
DA:177,0
DA:179,0
DA:182,0
DA:183,0
DA:184,0
DA:187,0
DA:188,0
DA:189,0
DA:190,0
DA:191,0
DA:192,0
DA:196,0
DA:200,0
DA:201,0
DA:203,0
DA:204,0
DA:205,0
DA:206,0
DA:207,0
DA:208,0
DA:209,0
DA:210,0
DA:216,0
DA:217,0
DA:218,0
DA:219,0
DA:220,0
DA:223,0
DA:224,0
DA:225,0
DA:226,0
DA:228,0
DA:229,0
DA:230,0
DA:233,0
DA:236,0
DA:239,0
DA:240,0
DA:241,0
DA:243,0
DA:245,0
DA:246,0
DA:247,0
DA:248,0
DA:250,0
DA:252,0
DA:253,0
DA:256,0
DA:257,0
DA:258,0
DA:260,0
DA:263,0
DA:264,0
DA:265,0
DA:266,0
DA:267,0
DA:268,0
DA:269,0
DA:270,0
DA:273,0
DA:274,0
DA:276,0
DA:279,0
DA:282,0
DA:283,0
DA:284,0
DA:285,0
DA:287,0
DA:288,0
DA:289,0
DA:290,0
DA:291,0
DA:293,0
DA:295,0
DA:296,0
DA:297,0
DA:298,0
DA:299,0
DA:302,0
DA:304,0
DA:305,0
DA:306,0
DA:308,0
DA:309,0
DA:310,0
DA:313,0
BRF:0
BRH:0
LF:219
LH:0
end_of_record
SF:/Users/tt/workspace/claude-scheduler/src/components.rs
FN:1215,_RNCNvNCNvNtCs9tQrTLhafAq_16claude_scheduler10components3apps16_010___TEMPLATE0B9_
FN:1215,_RNCNvNCNvNtCs9tQrTLhafAq_16claude_scheduler10components3apps16_0s_10___TEMPLATE0B9_
FN:1215,_RNCNvNCNvNtCs9tQrTLhafAq_16claude_scheduler10components3appsW_010___TEMPLATE0B9_
FN:1215,_RNCNvNCNvNtCs9tQrTLhafAq_16claude_scheduler10components3appsW_0s0_10___TEMPLATE0B9_
FN:1215,_RNCNvNCNvNtCs9tQrTLhafAq_16claude_scheduler10components3appsW_0s_10___TEMPLATE0B9_
FN:1215,_RNCNvNCNvNtCs9tQrTLhafAq_16claude_scheduler10components3appsy_010___TEMPLATE0B9_
FN:1215,_RNCNvNvNtCs9tQrTLhafAq_16claude_scheduler10components3app10___TEMPLATE0B7_
FN:1215,_RNCNvNvNtCs9tQrTLhafAq_16claude_scheduler10components3apps0_10___TEMPLATE0B7_
FN:1215,_RNCNvNvNtCs9tQrTLhafAq_16claude_scheduler10components3apps1_10___TEMPLATE0B7_
FN:1215,_RNCNvNvNtCs9tQrTLhafAq_16claude_scheduler10components3apps2_10___TEMPLATE0B7_
FN:1215,_RNCNvNvNtCs9tQrTLhafAq_16claude_scheduler10components3apps3_10___TEMPLATE0B7_
FN:1215,_RNCNvNvNtCs9tQrTLhafAq_16claude_scheduler10components3apps4_10___TEMPLATE0B7_
FN:1215,_RNCNvNvNtCs9tQrTLhafAq_16claude_scheduler10components3apps5_10___TEMPLATE0B7_
FN:1215,_RNCNvNvNtCs9tQrTLhafAq_16claude_scheduler10components3apps6_10___TEMPLATE0B7_
FN:1215,_RNCNvNvNtCs9tQrTLhafAq_16claude_scheduler10components3apps7_10___TEMPLATE0B7_
FN:1215,_RNCNvNvNtCs9tQrTLhafAq_16claude_scheduler10components3apps8_10___TEMPLATE0B7_
FN:1215,_RNCNvNvNtCs9tQrTLhafAq_16claude_scheduler10components3apps9_10___TEMPLATE0B7_
FN:1215,_RNCNvNvNtCs9tQrTLhafAq_16claude_scheduler10components3apps_10___TEMPLATE0B7_
FN:1215,_RNCNvNvNtCs9tQrTLhafAq_16claude_scheduler10components3appsa_10___TEMPLATE0B7_
FN:1215,_RNCNvNvNtCs9tQrTLhafAq_16claude_scheduler10components3appsb_10___TEMPLATE0B7_
FN:1215,_RNCNvNvNtCs9tQrTLhafAq_16claude_scheduler10components3appsc_10___TEMPLATE0B7_
FN:1215,_RNCNvNvNtCs9tQrTLhafAq_16claude_scheduler10components3appsd_10___TEMPLATE0B7_
FN:1215,_RNCNvNvNtCs9tQrTLhafAq_16claude_scheduler10components3appse_10___TEMPLATE0B7_
FN:1215,_RNCNvNvNtCs9tQrTLhafAq_16claude_scheduler10components3appsf_10___TEMPLATE0B7_
FN:1215,_RNCNvNvNtCs9tQrTLhafAq_16claude_scheduler10components3appsg_10___TEMPLATE0B7_
FN:1215,_RNCNvNvNtCs9tQrTLhafAq_16claude_scheduler10components3appsh_10___TEMPLATE0B7_
FN:1215,_RNCNvNvNtCs9tQrTLhafAq_16claude_scheduler10components3appsi_10___TEMPLATE0B7_
FN:1215,_RNCNvNvNtCs9tQrTLhafAq_16claude_scheduler10components3appsj_10___TEMPLATE0B7_
FN:1215,_RNCNvNvNtCs9tQrTLhafAq_16claude_scheduler10components3appsk_10___TEMPLATE0B7_
FN:80,_RNCNCNCNCNvNtCs9tQrTLhafAq_16claude_scheduler10components16schedule_checker00s_00Bb_
FN:1011,_RNCNCNCNCNvNtCs9tQrTLhafAq_16claude_scheduler10components3appsW_0s4_000Bb_
FN:24,_RNCNCNCNvNtCs9tQrTLhafAq_16claude_scheduler10components16schedule_checker000B9_
FN:103,_RNCNCNCNvNtCs9tQrTLhafAq_16claude_scheduler10components16schedule_checker00s0_0B9_
FN:79,_RNCNCNCNvNtCs9tQrTLhafAq_16claude_scheduler10components16schedule_checker00s_0B9_
FN:1010,_RNCNCNCNvNtCs9tQrTLhafAq_16claude_scheduler10components3appsW_0s4_00B9_
FN:289,_RNCNCNCNvNtCs9tQrTLhafAq_16claude_scheduler10components3appsa_000B9_
FN:318,_RNCNCNCNvNtCs9tQrTLhafAq_16claude_scheduler10components3appsa_00s_0B9_
FN:19,_RNCNCNvNtCs9tQrTLhafAq_16claude_scheduler10components16schedule_checker00B7_
FN:1215,_RNCNCNvNtCs9tQrTLhafAq_16claude_scheduler10components3apps16_00B7_
FN:1215,_RNCNCNvNtCs9tQrTLhafAq_16claude_scheduler10components3apps16_0s0_0B7_
FN:1215,_RNCNCNvNtCs9tQrTLhafAq_16claude_scheduler10components3apps16_0s1_0B7_
FN:1174,_RNCNCNvNtCs9tQrTLhafAq_16claude_scheduler10components3apps16_0s2_0B7_
FN:1215,_RNCNCNvNtCs9tQrTLhafAq_16claude_scheduler10components3apps16_0s_0B7_
FN:522,_RNCNCNvNtCs9tQrTLhafAq_16claude_scheduler10components3apps1b_00B7_
FN:554,_RNCNCNvNtCs9tQrTLhafAq_16claude_scheduler10components3apps1c_00B7_
FN:183,_RNCNCNvNtCs9tQrTLhafAq_16claude_scheduler10components3apps8_00B7_
FN:192,_RNCNCNvNtCs9tQrTLhafAq_16claude_scheduler10components3apps9_00B7_
FN:1215,_RNCNCNvNtCs9tQrTLhafAq_16claude_scheduler10components3appsW_00B7_
FN:1215,_RNCNCNvNtCs9tQrTLhafAq_16claude_scheduler10components3appsW_0s0_0B7_
FN:1215,_RNCNCNvNtCs9tQrTLhafAq_16claude_scheduler10components3appsW_0s1_0B7_
FN:1215,_RNCNCNvNtCs9tQrTLhafAq_16claude_scheduler10components3appsW_0s2_0B7_
FN:1215,_RNCNCNvNtCs9tQrTLhafAq_16claude_scheduler10components3appsW_0s3_0B7_
FN:1009,_RNCNCNvNtCs9tQrTLhafAq_16claude_scheduler10components3appsW_0s4_0B7_
FN:1215,_RNCNCNvNtCs9tQrTLhafAq_16claude_scheduler10components3appsW_0s_0B7_
FN:214,_RNCNCNvNtCs9tQrTLhafAq_16claude_scheduler10components3appsa_00B7_
FN:360,_RNCNCNvNtCs9tQrTLhafAq_16claude_scheduler10components3appsb_00B7_
FN:1215,_RNCNCNvNtCs9tQrTLhafAq_16claude_scheduler10components3appsy_00B7_
FN:1215,_RNCNCNvNtCs9tQrTLhafAq_16claude_scheduler10components3appsy_0s_0B7_
FN:18,_RNCNvNtCs9tQrTLhafAq_16claude_scheduler10components16schedule_checker0B5_
FN:114,_RNCNvNtCs9tQrTLhafAq_16claude_scheduler10components3app0B5_
FN:1215,_RNCNvNtCs9tQrTLhafAq_16claude_scheduler10components3apps10_0B5_
FN:1215,_RNCNvNtCs9tQrTLhafAq_16claude_scheduler10components3apps11_0B5_
FN:1215,_RNCNvNtCs9tQrTLhafAq_16claude_scheduler10components3apps12_0B5_
FN:1215,_RNCNvNtCs9tQrTLhafAq_16claude_scheduler10components3apps13_0B5_
FN:1215,_RNCNvNtCs9tQrTLhafAq_16claude_scheduler10components3apps14_0B5_
FN:1215,_RNCNvNtCs9tQrTLhafAq_16claude_scheduler10components3apps15_0B5_
FN:1215,_RNCNvNtCs9tQrTLhafAq_16claude_scheduler10components3apps16_0B5_
FN:1215,_RNCNvNtCs9tQrTLhafAq_16claude_scheduler10components3apps17_0B5_
FN:1215,_RNCNvNtCs9tQrTLhafAq_16claude_scheduler10components3apps18_0B5_
FN:461,_RNCNvNtCs9tQrTLhafAq_16claude_scheduler10components3apps19_0B5_
FN:492,_RNCNvNtCs9tQrTLhafAq_16claude_scheduler10components3apps1a_0B5_
FN:520,_RNCNvNtCs9tQrTLhafAq_16claude_scheduler10components3apps1b_0B5_
FN:547,_RNCNvNtCs9tQrTLhafAq_16claude_scheduler10components3apps1c_0B5_
FN:637,_RNCNvNtCs9tQrTLhafAq_16claude_scheduler10components3apps1d_0B5_
FN:740,_RNCNvNtCs9tQrTLhafAq_16claude_scheduler10components3apps1e_0B5_
FN:788,_RNCNvNtCs9tQrTLhafAq_16claude_scheduler10components3apps1f_0B5_
FN:803,_RNCNvNtCs9tQrTLhafAq_16claude_scheduler10components3apps1g_0B5_
FN:935,_RNCNvNtCs9tQrTLhafAq_16claude_scheduler10components3apps1h_0B5_
FN:180,_RNCNvNtCs9tQrTLhafAq_16claude_scheduler10components3apps8_0B5_
FN:190,_RNCNvNtCs9tQrTLhafAq_16claude_scheduler10components3apps9_0B5_
FN:1215,_RNCNvNtCs9tQrTLhafAq_16claude_scheduler10components3appsA_0B5_
FN:1215,_RNCNvNtCs9tQrTLhafAq_16claude_scheduler10components3appsB_0B5_
FN:1215,_RNCNvNtCs9tQrTLhafAq_16claude_scheduler10components3appsC_0B5_
FN:1215,_RNCNvNtCs9tQrTLhafAq_16claude_scheduler10components3appsD_0B5_
FN:1215,_RNCNvNtCs9tQrTLhafAq_16claude_scheduler10components3appsE_0B5_
FN:1215,_RNCNvNtCs9tQrTLhafAq_16claude_scheduler10components3appsF_0B5_
FN:1215,_RNCNvNtCs9tQrTLhafAq_16claude_scheduler10components3appsG_0B5_
FN:1215,_RNCNvNtCs9tQrTLhafAq_16claude_scheduler10components3appsH_0B5_
FN:1215,_RNCNvNtCs9tQrTLhafAq_16claude_scheduler10components3appsI_0B5_
FN:1215,_RNCNvNtCs9tQrTLhafAq_16claude_scheduler10components3appsJ_0B5_
FN:757,_RNCNvNtCs9tQrTLhafAq_16claude_scheduler10components3appsK_0B5_
FN:773,_RNCNvNtCs9tQrTLhafAq_16claude_scheduler10components3appsL_0B5_
FN:1215,_RNCNvNtCs9tQrTLhafAq_16claude_scheduler10components3appsM_0B5_
FN:1215,_RNCNvNtCs9tQrTLhafAq_16claude_scheduler10components3appsN_0B5_
FN:829,_RNCNvNtCs9tQrTLhafAq_16claude_scheduler10components3appsO_0B5_
FN:841,_RNCNvNtCs9tQrTLhafAq_16claude_scheduler10components3appsP_0B5_
FN:860,_RNCNvNtCs9tQrTLhafAq_16claude_scheduler10components3appsQ_0B5_
FN:882,_RNCNvNtCs9tQrTLhafAq_16claude_scheduler10components3appsR_0B5_
FN:1215,_RNCNvNtCs9tQrTLhafAq_16claude_scheduler10components3appsS_0B5_
FN:1215,_RNCNvNtCs9tQrTLhafAq_16claude_scheduler10components3appsT_0B5_
FN:1215,_RNCNvNtCs9tQrTLhafAq_16claude_scheduler10components3appsU_0B5_
FN:1215,_RNCNvNtCs9tQrTLhafAq_16claude_scheduler10components3appsV_0B5_
FN:1215,_RNCNvNtCs9tQrTLhafAq_16claude_scheduler10components3appsW_0B5_
FN:1215,_RNCNvNtCs9tQrTLhafAq_16claude_scheduler10components3appsX_0B5_
FN:1215,_RNCNvNtCs9tQrTLhafAq_16claude_scheduler10components3appsY_0B5_
FN:1037,_RNCNvNtCs9tQrTLhafAq_16claude_scheduler10components3appsZ_0B5_
FN:202,_RNCNvNtCs9tQrTLhafAq_16claude_scheduler10components3appsa_0B5_
FN:329,_RNCNvNtCs9tQrTLhafAq_16claude_scheduler10components3appsb_0B5_
FN:372,_RNCNvNtCs9tQrTLhafAq_16claude_scheduler10components3appsc_0B5_
FN:1215,_RNCNvNtCs9tQrTLhafAq_16claude_scheduler10components3appsd_0B5_
FN:1215,_RNCNvNtCs9tQrTLhafAq_16claude_scheduler10components3appse_0B5_
FN:1215,_RNCNvNtCs9tQrTLhafAq_16claude_scheduler10components3appsf_0B5_
FN:1215,_RNCNvNtCs9tQrTLhafAq_16claude_scheduler10components3appsg_0B5_
FN:586,_RNCNvNtCs9tQrTLhafAq_16claude_scheduler10components3appsh_0B5_
FN:1215,_RNCNvNtCs9tQrTLhafAq_16claude_scheduler10components3appsi_0B5_
FN:1215,_RNCNvNtCs9tQrTLhafAq_16claude_scheduler10components3appsj_0B5_
FN:1215,_RNCNvNtCs9tQrTLhafAq_16claude_scheduler10components3appsk_0B5_
FN:1215,_RNCNvNtCs9tQrTLhafAq_16claude_scheduler10components3appsl_0B5_
FN:1215,_RNCNvNtCs9tQrTLhafAq_16claude_scheduler10components3appsm_0B5_
FN:1215,_RNCNvNtCs9tQrTLhafAq_16claude_scheduler10components3appsn_0B5_
FN:1215,_RNCNvNtCs9tQrTLhafAq_16claude_scheduler10components3appso_0B5_
FN:1215,_RNCNvNtCs9tQrTLhafAq_16claude_scheduler10components3appsp_0B5_
FN:1215,_RNCNvNtCs9tQrTLhafAq_16claude_scheduler10components3appsq_0B5_
FN:1215,_RNCNvNtCs9tQrTLhafAq_16claude_scheduler10components3appsr_0B5_
FN:1215,_RNCNvNtCs9tQrTLhafAq_16claude_scheduler10components3appss_0B5_
FN:1215,_RNCNvNtCs9tQrTLhafAq_16claude_scheduler10components3appst_0B5_
FN:1215,_RNCNvNtCs9tQrTLhafAq_16claude_scheduler10components3appsu_0B5_
FN:1215,_RNCNvNtCs9tQrTLhafAq_16claude_scheduler10components3appsv_0B5_
FN:1215,_RNCNvNtCs9tQrTLhafAq_16claude_scheduler10components3appsw_0B5_
FN:1215,_RNCNvNtCs9tQrTLhafAq_16claude_scheduler10components3appsx_0B5_
FN:1215,_RNCNvNtCs9tQrTLhafAq_16claude_scheduler10components3appsy_0B5_
FN:678,_RNCNvNtCs9tQrTLhafAq_16claude_scheduler10components3appsz_0B5_
FN:1215,_RNvNCNvNtCs9tQrTLhafAq_16claude_scheduler10components3apps16_019___original_template
FN:1215,_RNvNCNvNtCs9tQrTLhafAq_16claude_scheduler10components3apps16_0s_19___original_template
FN:1215,_RNvNCNvNtCs9tQrTLhafAq_16claude_scheduler10components3appsW_019___original_template
FN:1215,_RNvNCNvNtCs9tQrTLhafAq_16claude_scheduler10components3appsW_0s0_19___original_template
FN:1215,_RNvNCNvNtCs9tQrTLhafAq_16claude_scheduler10components3appsW_0s_19___original_template
FN:1215,_RNvNCNvNtCs9tQrTLhafAq_16claude_scheduler10components3appsy_019___original_template
FN:14,_RNvNtCs9tQrTLhafAq_16claude_scheduler10components16schedule_checker
FN:111,_RNvNtCs9tQrTLhafAq_16claude_scheduler10components3app
FN:1215,_RNvNvNtCs9tQrTLhafAq_16claude_scheduler10components3app19___original_template
FN:1215,_RNvNvNtCs9tQrTLhafAq_16claude_scheduler10components3apps0_19___original_template
FN:1215,_RNvNvNtCs9tQrTLhafAq_16claude_scheduler10components3apps1_19___original_template
FN:1215,_RNvNvNtCs9tQrTLhafAq_16claude_scheduler10components3apps2_19___original_template
FN:1215,_RNvNvNtCs9tQrTLhafAq_16claude_scheduler10components3apps3_19___original_template
FN:1215,_RNvNvNtCs9tQrTLhafAq_16claude_scheduler10components3apps4_19___original_template
FN:1215,_RNvNvNtCs9tQrTLhafAq_16claude_scheduler10components3apps5_19___original_template
FN:1215,_RNvNvNtCs9tQrTLhafAq_16claude_scheduler10components3apps6_19___original_template
FN:1215,_RNvNvNtCs9tQrTLhafAq_16claude_scheduler10components3apps7_19___original_template
FN:1215,_RNvNvNtCs9tQrTLhafAq_16claude_scheduler10components3apps8_19___original_template
FN:1215,_RNvNvNtCs9tQrTLhafAq_16claude_scheduler10components3apps9_19___original_template
FN:1215,_RNvNvNtCs9tQrTLhafAq_16claude_scheduler10components3apps_19___original_template
FN:1215,_RNvNvNtCs9tQrTLhafAq_16claude_scheduler10components3appsa_19___original_template
FN:1215,_RNvNvNtCs9tQrTLhafAq_16claude_scheduler10components3appsb_19___original_template
FN:1215,_RNvNvNtCs9tQrTLhafAq_16claude_scheduler10components3appsc_19___original_template
FN:1215,_RNvNvNtCs9tQrTLhafAq_16claude_scheduler10components3appsd_19___original_template
FN:1215,_RNvNvNtCs9tQrTLhafAq_16claude_scheduler10components3appse_19___original_template
FN:1215,_RNvNvNtCs9tQrTLhafAq_16claude_scheduler10components3appsf_19___original_template
FN:1215,_RNvNvNtCs9tQrTLhafAq_16claude_scheduler10components3appsg_19___original_template
FN:1215,_RNvNvNtCs9tQrTLhafAq_16claude_scheduler10components3appsh_19___original_template
FN:1215,_RNvNvNtCs9tQrTLhafAq_16claude_scheduler10components3appsi_19___original_template
FN:1215,_RNvNvNtCs9tQrTLhafAq_16claude_scheduler10components3appsj_19___original_template
FN:1215,_RNvNvNtCs9tQrTLhafAq_16claude_scheduler10components3appsk_19___original_template
FN:80,_RNCNCNCNCNvNtCs5mxsGHxdp9x_16claude_scheduler10components16schedule_checker00s_00Bb_
FN:1011,_RNCNCNCNCNvNtCs5mxsGHxdp9x_16claude_scheduler10components3appsW_0s4_000Bb_
FN:24,_RNCNCNCNvNtCs5mxsGHxdp9x_16claude_scheduler10components16schedule_checker000B9_
FN:103,_RNCNCNCNvNtCs5mxsGHxdp9x_16claude_scheduler10components16schedule_checker00s0_0B9_
FN:79,_RNCNCNCNvNtCs5mxsGHxdp9x_16claude_scheduler10components16schedule_checker00s_0B9_
FN:1010,_RNCNCNCNvNtCs5mxsGHxdp9x_16claude_scheduler10components3appsW_0s4_00B9_
FN:289,_RNCNCNCNvNtCs5mxsGHxdp9x_16claude_scheduler10components3appsa_000B9_
FN:318,_RNCNCNCNvNtCs5mxsGHxdp9x_16claude_scheduler10components3appsa_00s_0B9_
FN:19,_RNCNCNvNtCs5mxsGHxdp9x_16claude_scheduler10components16schedule_checker00B7_
FN:1215,_RNCNCNvNtCs5mxsGHxdp9x_16claude_scheduler10components3apps16_00B7_
FN:1215,_RNCNCNvNtCs5mxsGHxdp9x_16claude_scheduler10components3apps16_0s0_0B7_
FN:1215,_RNCNCNvNtCs5mxsGHxdp9x_16claude_scheduler10components3apps16_0s1_0B7_
FN:1174,_RNCNCNvNtCs5mxsGHxdp9x_16claude_scheduler10components3apps16_0s2_0B7_
FN:1215,_RNCNCNvNtCs5mxsGHxdp9x_16claude_scheduler10components3apps16_0s_0B7_
FN:522,_RNCNCNvNtCs5mxsGHxdp9x_16claude_scheduler10components3apps1b_00B7_
FN:554,_RNCNCNvNtCs5mxsGHxdp9x_16claude_scheduler10components3apps1c_00B7_
FN:183,_RNCNCNvNtCs5mxsGHxdp9x_16claude_scheduler10components3apps8_00B7_
FN:192,_RNCNCNvNtCs5mxsGHxdp9x_16claude_scheduler10components3apps9_00B7_
FN:1215,_RNCNCNvNtCs5mxsGHxdp9x_16claude_scheduler10components3appsW_00B7_
FN:1215,_RNCNCNvNtCs5mxsGHxdp9x_16claude_scheduler10components3appsW_0s0_0B7_
FN:1215,_RNCNCNvNtCs5mxsGHxdp9x_16claude_scheduler10components3appsW_0s1_0B7_
FN:1215,_RNCNCNvNtCs5mxsGHxdp9x_16claude_scheduler10components3appsW_0s2_0B7_
FN:1215,_RNCNCNvNtCs5mxsGHxdp9x_16claude_scheduler10components3appsW_0s3_0B7_
FN:1009,_RNCNCNvNtCs5mxsGHxdp9x_16claude_scheduler10components3appsW_0s4_0B7_
FN:1215,_RNCNCNvNtCs5mxsGHxdp9x_16claude_scheduler10components3appsW_0s_0B7_
FN:214,_RNCNCNvNtCs5mxsGHxdp9x_16claude_scheduler10components3appsa_00B7_
FN:360,_RNCNCNvNtCs5mxsGHxdp9x_16claude_scheduler10components3appsb_00B7_
FN:1215,_RNCNCNvNtCs5mxsGHxdp9x_16claude_scheduler10components3appsy_00B7_
FN:1215,_RNCNCNvNtCs5mxsGHxdp9x_16claude_scheduler10components3appsy_0s_0B7_
FN:18,_RNCNvNtCs5mxsGHxdp9x_16claude_scheduler10components16schedule_checker0B5_
FN:114,_RNCNvNtCs5mxsGHxdp9x_16claude_scheduler10components3app0B5_
FN:1215,_RNCNvNtCs5mxsGHxdp9x_16claude_scheduler10components3apps10_0B5_
FN:1215,_RNCNvNtCs5mxsGHxdp9x_16claude_scheduler10components3apps11_0B5_
FN:1215,_RNCNvNtCs5mxsGHxdp9x_16claude_scheduler10components3apps12_0B5_
FN:1215,_RNCNvNtCs5mxsGHxdp9x_16claude_scheduler10components3apps13_0B5_
FN:1215,_RNCNvNtCs5mxsGHxdp9x_16claude_scheduler10components3apps14_0B5_
FN:1215,_RNCNvNtCs5mxsGHxdp9x_16claude_scheduler10components3apps15_0B5_
FN:1215,_RNCNvNtCs5mxsGHxdp9x_16claude_scheduler10components3apps16_0B5_
FN:1215,_RNCNvNtCs5mxsGHxdp9x_16claude_scheduler10components3apps17_0B5_
FN:1215,_RNCNvNtCs5mxsGHxdp9x_16claude_scheduler10components3apps18_0B5_
FN:461,_RNCNvNtCs5mxsGHxdp9x_16claude_scheduler10components3apps19_0B5_
FN:492,_RNCNvNtCs5mxsGHxdp9x_16claude_scheduler10components3apps1a_0B5_
FN:520,_RNCNvNtCs5mxsGHxdp9x_16claude_scheduler10components3apps1b_0B5_
FN:547,_RNCNvNtCs5mxsGHxdp9x_16claude_scheduler10components3apps1c_0B5_
FN:637,_RNCNvNtCs5mxsGHxdp9x_16claude_scheduler10components3apps1d_0B5_
FN:740,_RNCNvNtCs5mxsGHxdp9x_16claude_scheduler10components3apps1e_0B5_
FN:788,_RNCNvNtCs5mxsGHxdp9x_16claude_scheduler10components3apps1f_0B5_
FN:803,_RNCNvNtCs5mxsGHxdp9x_16claude_scheduler10components3apps1g_0B5_
FN:935,_RNCNvNtCs5mxsGHxdp9x_16claude_scheduler10components3apps1h_0B5_
FN:180,_RNCNvNtCs5mxsGHxdp9x_16claude_scheduler10components3apps8_0B5_
FN:190,_RNCNvNtCs5mxsGHxdp9x_16claude_scheduler10components3apps9_0B5_
FN:1215,_RNCNvNtCs5mxsGHxdp9x_16claude_scheduler10components3appsA_0B5_
FN:1215,_RNCNvNtCs5mxsGHxdp9x_16claude_scheduler10components3appsB_0B5_
FN:1215,_RNCNvNtCs5mxsGHxdp9x_16claude_scheduler10components3appsC_0B5_
FN:1215,_RNCNvNtCs5mxsGHxdp9x_16claude_scheduler10components3appsD_0B5_
FN:1215,_RNCNvNtCs5mxsGHxdp9x_16claude_scheduler10components3appsE_0B5_
FN:1215,_RNCNvNtCs5mxsGHxdp9x_16claude_scheduler10components3appsF_0B5_
FN:1215,_RNCNvNtCs5mxsGHxdp9x_16claude_scheduler10components3appsG_0B5_
FN:1215,_RNCNvNtCs5mxsGHxdp9x_16claude_scheduler10components3appsH_0B5_
FN:1215,_RNCNvNtCs5mxsGHxdp9x_16claude_scheduler10components3appsI_0B5_
FN:1215,_RNCNvNtCs5mxsGHxdp9x_16claude_scheduler10components3appsJ_0B5_
FN:757,_RNCNvNtCs5mxsGHxdp9x_16claude_scheduler10components3appsK_0B5_
FN:773,_RNCNvNtCs5mxsGHxdp9x_16claude_scheduler10components3appsL_0B5_
FN:1215,_RNCNvNtCs5mxsGHxdp9x_16claude_scheduler10components3appsM_0B5_
FN:1215,_RNCNvNtCs5mxsGHxdp9x_16claude_scheduler10components3appsN_0B5_
FN:829,_RNCNvNtCs5mxsGHxdp9x_16claude_scheduler10components3appsO_0B5_
FN:841,_RNCNvNtCs5mxsGHxdp9x_16claude_scheduler10components3appsP_0B5_
FN:860,_RNCNvNtCs5mxsGHxdp9x_16claude_scheduler10components3appsQ_0B5_
FN:882,_RNCNvNtCs5mxsGHxdp9x_16claude_scheduler10components3appsR_0B5_
FN:1215,_RNCNvNtCs5mxsGHxdp9x_16claude_scheduler10components3appsS_0B5_
FN:1215,_RNCNvNtCs5mxsGHxdp9x_16claude_scheduler10components3appsT_0B5_
FN:1215,_RNCNvNtCs5mxsGHxdp9x_16claude_scheduler10components3appsU_0B5_
FN:1215,_RNCNvNtCs5mxsGHxdp9x_16claude_scheduler10components3appsV_0B5_
FN:1215,_RNCNvNtCs5mxsGHxdp9x_16claude_scheduler10components3appsW_0B5_
FN:1215,_RNCNvNtCs5mxsGHxdp9x_16claude_scheduler10components3appsX_0B5_
FN:1215,_RNCNvNtCs5mxsGHxdp9x_16claude_scheduler10components3appsY_0B5_
FN:1037,_RNCNvNtCs5mxsGHxdp9x_16claude_scheduler10components3appsZ_0B5_
FN:202,_RNCNvNtCs5mxsGHxdp9x_16claude_scheduler10components3appsa_0B5_
FN:329,_RNCNvNtCs5mxsGHxdp9x_16claude_scheduler10components3appsb_0B5_
FN:372,_RNCNvNtCs5mxsGHxdp9x_16claude_scheduler10components3appsc_0B5_
FN:1215,_RNCNvNtCs5mxsGHxdp9x_16claude_scheduler10components3appsd_0B5_
FN:1215,_RNCNvNtCs5mxsGHxdp9x_16claude_scheduler10components3appse_0B5_
FN:1215,_RNCNvNtCs5mxsGHxdp9x_16claude_scheduler10components3appsf_0B5_
FN:1215,_RNCNvNtCs5mxsGHxdp9x_16claude_scheduler10components3appsg_0B5_
FN:586,_RNCNvNtCs5mxsGHxdp9x_16claude_scheduler10components3appsh_0B5_
FN:1215,_RNCNvNtCs5mxsGHxdp9x_16claude_scheduler10components3appsi_0B5_
FN:1215,_RNCNvNtCs5mxsGHxdp9x_16claude_scheduler10components3appsj_0B5_
FN:1215,_RNCNvNtCs5mxsGHxdp9x_16claude_scheduler10components3appsk_0B5_
FN:1215,_RNCNvNtCs5mxsGHxdp9x_16claude_scheduler10components3appsl_0B5_
FN:1215,_RNCNvNtCs5mxsGHxdp9x_16claude_scheduler10components3appsm_0B5_
FN:1215,_RNCNvNtCs5mxsGHxdp9x_16claude_scheduler10components3appsn_0B5_
FN:1215,_RNCNvNtCs5mxsGHxdp9x_16claude_scheduler10components3appso_0B5_
FN:1215,_RNCNvNtCs5mxsGHxdp9x_16claude_scheduler10components3appsp_0B5_
FN:1215,_RNCNvNtCs5mxsGHxdp9x_16claude_scheduler10components3appsq_0B5_
FN:1215,_RNCNvNtCs5mxsGHxdp9x_16claude_scheduler10components3appsr_0B5_
FN:1215,_RNCNvNtCs5mxsGHxdp9x_16claude_scheduler10components3appss_0B5_
FN:1215,_RNCNvNtCs5mxsGHxdp9x_16claude_scheduler10components3appst_0B5_
FN:1215,_RNCNvNtCs5mxsGHxdp9x_16claude_scheduler10components3appsu_0B5_
FN:1215,_RNCNvNtCs5mxsGHxdp9x_16claude_scheduler10components3appsv_0B5_
FN:1215,_RNCNvNtCs5mxsGHxdp9x_16claude_scheduler10components3appsw_0B5_
FN:1215,_RNCNvNtCs5mxsGHxdp9x_16claude_scheduler10components3appsx_0B5_
FN:1215,_RNCNvNtCs5mxsGHxdp9x_16claude_scheduler10components3appsy_0B5_
FN:678,_RNCNvNtCs5mxsGHxdp9x_16claude_scheduler10components3appsz_0B5_
FN:1215,_RNvNCNvNtCs5mxsGHxdp9x_16claude_scheduler10components3apps16_019___original_template
FN:1215,_RNvNCNvNtCs5mxsGHxdp9x_16claude_scheduler10components3apps16_0s_19___original_template
FN:1215,_RNvNCNvNtCs5mxsGHxdp9x_16claude_scheduler10components3appsW_019___original_template
FN:1215,_RNvNCNvNtCs5mxsGHxdp9x_16claude_scheduler10components3appsW_0s0_19___original_template
FN:1215,_RNvNCNvNtCs5mxsGHxdp9x_16claude_scheduler10components3appsW_0s_19___original_template
FN:1215,_RNvNCNvNtCs5mxsGHxdp9x_16claude_scheduler10components3appsy_019___original_template
FN:14,_RNvNtCs5mxsGHxdp9x_16claude_scheduler10components16schedule_checker
FN:111,_RNvNtCs5mxsGHxdp9x_16claude_scheduler10components3app
FN:1215,_RNvNvNtCs5mxsGHxdp9x_16claude_scheduler10components3app19___original_template
FN:1215,_RNvNvNtCs5mxsGHxdp9x_16claude_scheduler10components3apps0_19___original_template
FN:1215,_RNvNvNtCs5mxsGHxdp9x_16claude_scheduler10components3apps1_19___original_template
FN:1215,_RNvNvNtCs5mxsGHxdp9x_16claude_scheduler10components3apps2_19___original_template
FN:1215,_RNvNvNtCs5mxsGHxdp9x_16claude_scheduler10components3apps3_19___original_template
FN:1215,_RNvNvNtCs5mxsGHxdp9x_16claude_scheduler10components3apps4_19___original_template
FN:1215,_RNvNvNtCs5mxsGHxdp9x_16claude_scheduler10components3apps5_19___original_template
FN:1215,_RNvNvNtCs5mxsGHxdp9x_16claude_scheduler10components3apps6_19___original_template
FN:1215,_RNvNvNtCs5mxsGHxdp9x_16claude_scheduler10components3apps7_19___original_template
FN:1215,_RNvNvNtCs5mxsGHxdp9x_16claude_scheduler10components3apps8_19___original_template
FN:1215,_RNvNvNtCs5mxsGHxdp9x_16claude_scheduler10components3apps9_19___original_template
FN:1215,_RNvNvNtCs5mxsGHxdp9x_16claude_scheduler10components3apps_19___original_template
FN:1215,_RNvNvNtCs5mxsGHxdp9x_16claude_scheduler10components3appsa_19___original_template
FN:1215,_RNvNvNtCs5mxsGHxdp9x_16claude_scheduler10components3appsb_19___original_template
FN:1215,_RNvNvNtCs5mxsGHxdp9x_16claude_scheduler10components3appsc_19___original_template
FN:1215,_RNvNvNtCs5mxsGHxdp9x_16claude_scheduler10components3appsd_19___original_template
FN:1215,_RNvNvNtCs5mxsGHxdp9x_16claude_scheduler10components3appse_19___original_template
FN:1215,_RNvNvNtCs5mxsGHxdp9x_16claude_scheduler10components3appsf_19___original_template
FN:1215,_RNvNvNtCs5mxsGHxdp9x_16claude_scheduler10components3appsg_19___original_template
FN:1215,_RNvNvNtCs5mxsGHxdp9x_16claude_scheduler10components3appsh_19___original_template
FN:1215,_RNvNvNtCs5mxsGHxdp9x_16claude_scheduler10components3appsi_19___original_template
FN:1215,_RNvNvNtCs5mxsGHxdp9x_16claude_scheduler10components3appsj_19___original_template
FN:1215,_RNvNvNtCs5mxsGHxdp9x_16claude_scheduler10components3appsk_19___original_template
FN:1215,_RNCNvNCNvNtCs5mxsGHxdp9x_16claude_scheduler10components3apps16_010___TEMPLATE0B9_
FN:1215,_RNCNvNCNvNtCs5mxsGHxdp9x_16claude_scheduler10components3apps16_0s_10___TEMPLATE0B9_
FN:1215,_RNCNvNCNvNtCs5mxsGHxdp9x_16claude_scheduler10components3appsW_010___TEMPLATE0B9_
FN:1215,_RNCNvNCNvNtCs5mxsGHxdp9x_16claude_scheduler10components3appsW_0s0_10___TEMPLATE0B9_
FN:1215,_RNCNvNCNvNtCs5mxsGHxdp9x_16claude_scheduler10components3appsW_0s_10___TEMPLATE0B9_
FN:1215,_RNCNvNCNvNtCs5mxsGHxdp9x_16claude_scheduler10components3appsy_010___TEMPLATE0B9_
FN:1215,_RNCNvNvNtCs5mxsGHxdp9x_16claude_scheduler10components3app10___TEMPLATE0B7_
FN:1215,_RNCNvNvNtCs5mxsGHxdp9x_16claude_scheduler10components3apps0_10___TEMPLATE0B7_
FN:1215,_RNCNvNvNtCs5mxsGHxdp9x_16claude_scheduler10components3apps1_10___TEMPLATE0B7_
FN:1215,_RNCNvNvNtCs5mxsGHxdp9x_16claude_scheduler10components3apps2_10___TEMPLATE0B7_
FN:1215,_RNCNvNvNtCs5mxsGHxdp9x_16claude_scheduler10components3apps3_10___TEMPLATE0B7_
FN:1215,_RNCNvNvNtCs5mxsGHxdp9x_16claude_scheduler10components3apps4_10___TEMPLATE0B7_
FN:1215,_RNCNvNvNtCs5mxsGHxdp9x_16claude_scheduler10components3apps5_10___TEMPLATE0B7_
FN:1215,_RNCNvNvNtCs5mxsGHxdp9x_16claude_scheduler10components3apps6_10___TEMPLATE0B7_
FN:1215,_RNCNvNvNtCs5mxsGHxdp9x_16claude_scheduler10components3apps7_10___TEMPLATE0B7_
FN:1215,_RNCNvNvNtCs5mxsGHxdp9x_16claude_scheduler10components3apps8_10___TEMPLATE0B7_
FN:1215,_RNCNvNvNtCs5mxsGHxdp9x_16claude_scheduler10components3apps9_10___TEMPLATE0B7_
FN:1215,_RNCNvNvNtCs5mxsGHxdp9x_16claude_scheduler10components3apps_10___TEMPLATE0B7_
FN:1215,_RNCNvNvNtCs5mxsGHxdp9x_16claude_scheduler10components3appsa_10___TEMPLATE0B7_
FN:1215,_RNCNvNvNtCs5mxsGHxdp9x_16claude_scheduler10components3appsb_10___TEMPLATE0B7_
FN:1215,_RNCNvNvNtCs5mxsGHxdp9x_16claude_scheduler10components3appsc_10___TEMPLATE0B7_
FN:1215,_RNCNvNvNtCs5mxsGHxdp9x_16claude_scheduler10components3appsd_10___TEMPLATE0B7_
FN:1215,_RNCNvNvNtCs5mxsGHxdp9x_16claude_scheduler10components3appse_10___TEMPLATE0B7_
FN:1215,_RNCNvNvNtCs5mxsGHxdp9x_16claude_scheduler10components3appsf_10___TEMPLATE0B7_
FN:1215,_RNCNvNvNtCs5mxsGHxdp9x_16claude_scheduler10components3appsg_10___TEMPLATE0B7_
FN:1215,_RNCNvNvNtCs5mxsGHxdp9x_16claude_scheduler10components3appsh_10___TEMPLATE0B7_
FN:1215,_RNCNvNvNtCs5mxsGHxdp9x_16claude_scheduler10components3appsi_10___TEMPLATE0B7_
FN:1215,_RNCNvNvNtCs5mxsGHxdp9x_16claude_scheduler10components3appsj_10___TEMPLATE0B7_
FN:1215,_RNCNvNvNtCs5mxsGHxdp9x_16claude_scheduler10components3appsk_10___TEMPLATE0B7_
FNDA:0,_RNCNvNCNvNtCs9tQrTLhafAq_16claude_scheduler10components3apps16_010___TEMPLATE0B9_
FNDA:0,_RNCNvNCNvNtCs9tQrTLhafAq_16claude_scheduler10components3apps16_0s_10___TEMPLATE0B9_
FNDA:0,_RNCNvNCNvNtCs9tQrTLhafAq_16claude_scheduler10components3appsW_010___TEMPLATE0B9_
FNDA:0,_RNCNvNCNvNtCs9tQrTLhafAq_16claude_scheduler10components3appsW_0s0_10___TEMPLATE0B9_
FNDA:0,_RNCNvNCNvNtCs9tQrTLhafAq_16claude_scheduler10components3appsW_0s_10___TEMPLATE0B9_
FNDA:0,_RNCNvNCNvNtCs9tQrTLhafAq_16claude_scheduler10components3appsy_010___TEMPLATE0B9_
FNDA:0,_RNCNvNvNtCs9tQrTLhafAq_16claude_scheduler10components3app10___TEMPLATE0B7_
FNDA:0,_RNCNvNvNtCs9tQrTLhafAq_16claude_scheduler10components3apps0_10___TEMPLATE0B7_
FNDA:0,_RNCNvNvNtCs9tQrTLhafAq_16claude_scheduler10components3apps1_10___TEMPLATE0B7_
FNDA:0,_RNCNvNvNtCs9tQrTLhafAq_16claude_scheduler10components3apps2_10___TEMPLATE0B7_
FNDA:0,_RNCNvNvNtCs9tQrTLhafAq_16claude_scheduler10components3apps3_10___TEMPLATE0B7_
FNDA:0,_RNCNvNvNtCs9tQrTLhafAq_16claude_scheduler10components3apps4_10___TEMPLATE0B7_
FNDA:0,_RNCNvNvNtCs9tQrTLhafAq_16claude_scheduler10components3apps5_10___TEMPLATE0B7_
FNDA:0,_RNCNvNvNtCs9tQrTLhafAq_16claude_scheduler10components3apps6_10___TEMPLATE0B7_
FNDA:0,_RNCNvNvNtCs9tQrTLhafAq_16claude_scheduler10components3apps7_10___TEMPLATE0B7_
FNDA:0,_RNCNvNvNtCs9tQrTLhafAq_16claude_scheduler10components3apps8_10___TEMPLATE0B7_
FNDA:0,_RNCNvNvNtCs9tQrTLhafAq_16claude_scheduler10components3apps9_10___TEMPLATE0B7_
FNDA:0,_RNCNvNvNtCs9tQrTLhafAq_16claude_scheduler10components3apps_10___TEMPLATE0B7_
FNDA:0,_RNCNvNvNtCs9tQrTLhafAq_16claude_scheduler10components3appsa_10___TEMPLATE0B7_
FNDA:0,_RNCNvNvNtCs9tQrTLhafAq_16claude_scheduler10components3appsb_10___TEMPLATE0B7_
FNDA:0,_RNCNvNvNtCs9tQrTLhafAq_16claude_scheduler10components3appsc_10___TEMPLATE0B7_
FNDA:0,_RNCNvNvNtCs9tQrTLhafAq_16claude_scheduler10components3appsd_10___TEMPLATE0B7_
FNDA:0,_RNCNvNvNtCs9tQrTLhafAq_16claude_scheduler10components3appse_10___TEMPLATE0B7_
FNDA:0,_RNCNvNvNtCs9tQrTLhafAq_16claude_scheduler10components3appsf_10___TEMPLATE0B7_
FNDA:0,_RNCNvNvNtCs9tQrTLhafAq_16claude_scheduler10components3appsg_10___TEMPLATE0B7_
FNDA:0,_RNCNvNvNtCs9tQrTLhafAq_16claude_scheduler10components3appsh_10___TEMPLATE0B7_
FNDA:0,_RNCNvNvNtCs9tQrTLhafAq_16claude_scheduler10components3appsi_10___TEMPLATE0B7_
FNDA:0,_RNCNvNvNtCs9tQrTLhafAq_16claude_scheduler10components3appsj_10___TEMPLATE0B7_
FNDA:0,_RNCNvNvNtCs9tQrTLhafAq_16claude_scheduler10components3appsk_10___TEMPLATE0B7_
FNDA:0,_RNCNCNCNCNvNtCs9tQrTLhafAq_16claude_scheduler10components16schedule_checker00s_00Bb_
FNDA:0,_RNCNCNCNCNvNtCs9tQrTLhafAq_16claude_scheduler10components3appsW_0s4_000Bb_
FNDA:0,_RNCNCNCNvNtCs9tQrTLhafAq_16claude_scheduler10components16schedule_checker000B9_
FNDA:0,_RNCNCNCNvNtCs9tQrTLhafAq_16claude_scheduler10components16schedule_checker00s0_0B9_
FNDA:0,_RNCNCNCNvNtCs9tQrTLhafAq_16claude_scheduler10components16schedule_checker00s_0B9_
FNDA:0,_RNCNCNCNvNtCs9tQrTLhafAq_16claude_scheduler10components3appsW_0s4_00B9_
FNDA:0,_RNCNCNCNvNtCs9tQrTLhafAq_16claude_scheduler10components3appsa_000B9_
FNDA:0,_RNCNCNCNvNtCs9tQrTLhafAq_16claude_scheduler10components3appsa_00s_0B9_
FNDA:0,_RNCNCNvNtCs9tQrTLhafAq_16claude_scheduler10components16schedule_checker00B7_
FNDA:0,_RNCNCNvNtCs9tQrTLhafAq_16claude_scheduler10components3apps16_00B7_
FNDA:0,_RNCNCNvNtCs9tQrTLhafAq_16claude_scheduler10components3apps16_0s0_0B7_
FNDA:0,_RNCNCNvNtCs9tQrTLhafAq_16claude_scheduler10components3apps16_0s1_0B7_
FNDA:0,_RNCNCNvNtCs9tQrTLhafAq_16claude_scheduler10components3apps16_0s2_0B7_
FNDA:0,_RNCNCNvNtCs9tQrTLhafAq_16claude_scheduler10components3apps16_0s_0B7_
FNDA:0,_RNCNCNvNtCs9tQrTLhafAq_16claude_scheduler10components3apps1b_00B7_
FNDA:0,_RNCNCNvNtCs9tQrTLhafAq_16claude_scheduler10components3apps1c_00B7_
FNDA:0,_RNCNCNvNtCs9tQrTLhafAq_16claude_scheduler10components3apps8_00B7_
FNDA:0,_RNCNCNvNtCs9tQrTLhafAq_16claude_scheduler10components3apps9_00B7_
FNDA:0,_RNCNCNvNtCs9tQrTLhafAq_16claude_scheduler10components3appsW_00B7_
FNDA:0,_RNCNCNvNtCs9tQrTLhafAq_16claude_scheduler10components3appsW_0s0_0B7_
FNDA:0,_RNCNCNvNtCs9tQrTLhafAq_16claude_scheduler10components3appsW_0s1_0B7_
FNDA:0,_RNCNCNvNtCs9tQrTLhafAq_16claude_scheduler10components3appsW_0s2_0B7_
FNDA:0,_RNCNCNvNtCs9tQrTLhafAq_16claude_scheduler10components3appsW_0s3_0B7_
FNDA:0,_RNCNCNvNtCs9tQrTLhafAq_16claude_scheduler10components3appsW_0s4_0B7_
FNDA:0,_RNCNCNvNtCs9tQrTLhafAq_16claude_scheduler10components3appsW_0s_0B7_
FNDA:0,_RNCNCNvNtCs9tQrTLhafAq_16claude_scheduler10components3appsa_00B7_
FNDA:0,_RNCNCNvNtCs9tQrTLhafAq_16claude_scheduler10components3appsb_00B7_
FNDA:0,_RNCNCNvNtCs9tQrTLhafAq_16claude_scheduler10components3appsy_00B7_
FNDA:0,_RNCNCNvNtCs9tQrTLhafAq_16claude_scheduler10components3appsy_0s_0B7_
FNDA:0,_RNCNvNtCs9tQrTLhafAq_16claude_scheduler10components16schedule_checker0B5_
FNDA:0,_RNCNvNtCs9tQrTLhafAq_16claude_scheduler10components3app0B5_
FNDA:0,_RNCNvNtCs9tQrTLhafAq_16claude_scheduler10components3apps10_0B5_
FNDA:0,_RNCNvNtCs9tQrTLhafAq_16claude_scheduler10components3apps11_0B5_
FNDA:0,_RNCNvNtCs9tQrTLhafAq_16claude_scheduler10components3apps12_0B5_
FNDA:0,_RNCNvNtCs9tQrTLhafAq_16claude_scheduler10components3apps13_0B5_
FNDA:0,_RNCNvNtCs9tQrTLhafAq_16claude_scheduler10components3apps14_0B5_
FNDA:0,_RNCNvNtCs9tQrTLhafAq_16claude_scheduler10components3apps15_0B5_
FNDA:0,_RNCNvNtCs9tQrTLhafAq_16claude_scheduler10components3apps16_0B5_
FNDA:0,_RNCNvNtCs9tQrTLhafAq_16claude_scheduler10components3apps17_0B5_
FNDA:0,_RNCNvNtCs9tQrTLhafAq_16claude_scheduler10components3apps18_0B5_
FNDA:0,_RNCNvNtCs9tQrTLhafAq_16claude_scheduler10components3apps19_0B5_
FNDA:0,_RNCNvNtCs9tQrTLhafAq_16claude_scheduler10components3apps1a_0B5_
FNDA:0,_RNCNvNtCs9tQrTLhafAq_16claude_scheduler10components3apps1b_0B5_
FNDA:0,_RNCNvNtCs9tQrTLhafAq_16claude_scheduler10components3apps1c_0B5_
FNDA:0,_RNCNvNtCs9tQrTLhafAq_16claude_scheduler10components3apps1d_0B5_
FNDA:0,_RNCNvNtCs9tQrTLhafAq_16claude_scheduler10components3apps1e_0B5_
FNDA:0,_RNCNvNtCs9tQrTLhafAq_16claude_scheduler10components3apps1f_0B5_
FNDA:0,_RNCNvNtCs9tQrTLhafAq_16claude_scheduler10components3apps1g_0B5_
FNDA:0,_RNCNvNtCs9tQrTLhafAq_16claude_scheduler10components3apps1h_0B5_
FNDA:0,_RNCNvNtCs9tQrTLhafAq_16claude_scheduler10components3apps8_0B5_
FNDA:0,_RNCNvNtCs9tQrTLhafAq_16claude_scheduler10components3apps9_0B5_
FNDA:0,_RNCNvNtCs9tQrTLhafAq_16claude_scheduler10components3appsA_0B5_
FNDA:0,_RNCNvNtCs9tQrTLhafAq_16claude_scheduler10components3appsB_0B5_
FNDA:0,_RNCNvNtCs9tQrTLhafAq_16claude_scheduler10components3appsC_0B5_
FNDA:0,_RNCNvNtCs9tQrTLhafAq_16claude_scheduler10components3appsD_0B5_
FNDA:0,_RNCNvNtCs9tQrTLhafAq_16claude_scheduler10components3appsE_0B5_
FNDA:0,_RNCNvNtCs9tQrTLhafAq_16claude_scheduler10components3appsF_0B5_
FNDA:0,_RNCNvNtCs9tQrTLhafAq_16claude_scheduler10components3appsG_0B5_
FNDA:0,_RNCNvNtCs9tQrTLhafAq_16claude_scheduler10components3appsH_0B5_
FNDA:0,_RNCNvNtCs9tQrTLhafAq_16claude_scheduler10components3appsI_0B5_
FNDA:0,_RNCNvNtCs9tQrTLhafAq_16claude_scheduler10components3appsJ_0B5_
FNDA:0,_RNCNvNtCs9tQrTLhafAq_16claude_scheduler10components3appsK_0B5_
FNDA:0,_RNCNvNtCs9tQrTLhafAq_16claude_scheduler10components3appsL_0B5_
FNDA:0,_RNCNvNtCs9tQrTLhafAq_16claude_scheduler10components3appsM_0B5_
FNDA:0,_RNCNvNtCs9tQrTLhafAq_16claude_scheduler10components3appsN_0B5_
FNDA:0,_RNCNvNtCs9tQrTLhafAq_16claude_scheduler10components3appsO_0B5_
FNDA:0,_RNCNvNtCs9tQrTLhafAq_16claude_scheduler10components3appsP_0B5_
FNDA:0,_RNCNvNtCs9tQrTLhafAq_16claude_scheduler10components3appsQ_0B5_
FNDA:0,_RNCNvNtCs9tQrTLhafAq_16claude_scheduler10components3appsR_0B5_
FNDA:0,_RNCNvNtCs9tQrTLhafAq_16claude_scheduler10components3appsS_0B5_
FNDA:0,_RNCNvNtCs9tQrTLhafAq_16claude_scheduler10components3appsT_0B5_
FNDA:0,_RNCNvNtCs9tQrTLhafAq_16claude_scheduler10components3appsU_0B5_
FNDA:0,_RNCNvNtCs9tQrTLhafAq_16claude_scheduler10components3appsV_0B5_
FNDA:0,_RNCNvNtCs9tQrTLhafAq_16claude_scheduler10components3appsW_0B5_
FNDA:0,_RNCNvNtCs9tQrTLhafAq_16claude_scheduler10components3appsX_0B5_
FNDA:0,_RNCNvNtCs9tQrTLhafAq_16claude_scheduler10components3appsY_0B5_
FNDA:0,_RNCNvNtCs9tQrTLhafAq_16claude_scheduler10components3appsZ_0B5_
FNDA:0,_RNCNvNtCs9tQrTLhafAq_16claude_scheduler10components3appsa_0B5_
FNDA:0,_RNCNvNtCs9tQrTLhafAq_16claude_scheduler10components3appsb_0B5_
FNDA:0,_RNCNvNtCs9tQrTLhafAq_16claude_scheduler10components3appsc_0B5_
FNDA:0,_RNCNvNtCs9tQrTLhafAq_16claude_scheduler10components3appsd_0B5_
FNDA:0,_RNCNvNtCs9tQrTLhafAq_16claude_scheduler10components3appse_0B5_
FNDA:0,_RNCNvNtCs9tQrTLhafAq_16claude_scheduler10components3appsf_0B5_
FNDA:0,_RNCNvNtCs9tQrTLhafAq_16claude_scheduler10components3appsg_0B5_
FNDA:0,_RNCNvNtCs9tQrTLhafAq_16claude_scheduler10components3appsh_0B5_
FNDA:0,_RNCNvNtCs9tQrTLhafAq_16claude_scheduler10components3appsi_0B5_
FNDA:0,_RNCNvNtCs9tQrTLhafAq_16claude_scheduler10components3appsj_0B5_
FNDA:0,_RNCNvNtCs9tQrTLhafAq_16claude_scheduler10components3appsk_0B5_
FNDA:0,_RNCNvNtCs9tQrTLhafAq_16claude_scheduler10components3appsl_0B5_
FNDA:0,_RNCNvNtCs9tQrTLhafAq_16claude_scheduler10components3appsm_0B5_
FNDA:0,_RNCNvNtCs9tQrTLhafAq_16claude_scheduler10components3appsn_0B5_
FNDA:0,_RNCNvNtCs9tQrTLhafAq_16claude_scheduler10components3appso_0B5_
FNDA:0,_RNCNvNtCs9tQrTLhafAq_16claude_scheduler10components3appsp_0B5_
FNDA:0,_RNCNvNtCs9tQrTLhafAq_16claude_scheduler10components3appsq_0B5_
FNDA:0,_RNCNvNtCs9tQrTLhafAq_16claude_scheduler10components3appsr_0B5_
FNDA:0,_RNCNvNtCs9tQrTLhafAq_16claude_scheduler10components3appss_0B5_
FNDA:0,_RNCNvNtCs9tQrTLhafAq_16claude_scheduler10components3appst_0B5_
FNDA:0,_RNCNvNtCs9tQrTLhafAq_16claude_scheduler10components3appsu_0B5_
FNDA:0,_RNCNvNtCs9tQrTLhafAq_16claude_scheduler10components3appsv_0B5_
FNDA:0,_RNCNvNtCs9tQrTLhafAq_16claude_scheduler10components3appsw_0B5_
FNDA:0,_RNCNvNtCs9tQrTLhafAq_16claude_scheduler10components3appsx_0B5_
FNDA:0,_RNCNvNtCs9tQrTLhafAq_16claude_scheduler10components3appsy_0B5_
FNDA:0,_RNCNvNtCs9tQrTLhafAq_16claude_scheduler10components3appsz_0B5_
FNDA:0,_RNvNCNvNtCs9tQrTLhafAq_16claude_scheduler10components3apps16_019___original_template
FNDA:0,_RNvNCNvNtCs9tQrTLhafAq_16claude_scheduler10components3apps16_0s_19___original_template
FNDA:0,_RNvNCNvNtCs9tQrTLhafAq_16claude_scheduler10components3appsW_019___original_template
FNDA:0,_RNvNCNvNtCs9tQrTLhafAq_16claude_scheduler10components3appsW_0s0_19___original_template
FNDA:0,_RNvNCNvNtCs9tQrTLhafAq_16claude_scheduler10components3appsW_0s_19___original_template
FNDA:0,_RNvNCNvNtCs9tQrTLhafAq_16claude_scheduler10components3appsy_019___original_template
FNDA:0,_RNvNtCs9tQrTLhafAq_16claude_scheduler10components16schedule_checker
FNDA:0,_RNvNtCs9tQrTLhafAq_16claude_scheduler10components3app
FNDA:0,_RNvNvNtCs9tQrTLhafAq_16claude_scheduler10components3app19___original_template
FNDA:0,_RNvNvNtCs9tQrTLhafAq_16claude_scheduler10components3apps0_19___original_template
FNDA:0,_RNvNvNtCs9tQrTLhafAq_16claude_scheduler10components3apps1_19___original_template
FNDA:0,_RNvNvNtCs9tQrTLhafAq_16claude_scheduler10components3apps2_19___original_template
FNDA:0,_RNvNvNtCs9tQrTLhafAq_16claude_scheduler10components3apps3_19___original_template
FNDA:0,_RNvNvNtCs9tQrTLhafAq_16claude_scheduler10components3apps4_19___original_template
FNDA:0,_RNvNvNtCs9tQrTLhafAq_16claude_scheduler10components3apps5_19___original_template
FNDA:0,_RNvNvNtCs9tQrTLhafAq_16claude_scheduler10components3apps6_19___original_template
FNDA:0,_RNvNvNtCs9tQrTLhafAq_16claude_scheduler10components3apps7_19___original_template
FNDA:0,_RNvNvNtCs9tQrTLhafAq_16claude_scheduler10components3apps8_19___original_template
FNDA:0,_RNvNvNtCs9tQrTLhafAq_16claude_scheduler10components3apps9_19___original_template
FNDA:0,_RNvNvNtCs9tQrTLhafAq_16claude_scheduler10components3apps_19___original_template
FNDA:0,_RNvNvNtCs9tQrTLhafAq_16claude_scheduler10components3appsa_19___original_template
FNDA:0,_RNvNvNtCs9tQrTLhafAq_16claude_scheduler10components3appsb_19___original_template
FNDA:0,_RNvNvNtCs9tQrTLhafAq_16claude_scheduler10components3appsc_19___original_template
FNDA:0,_RNvNvNtCs9tQrTLhafAq_16claude_scheduler10components3appsd_19___original_template
FNDA:0,_RNvNvNtCs9tQrTLhafAq_16claude_scheduler10components3appse_19___original_template
FNDA:0,_RNvNvNtCs9tQrTLhafAq_16claude_scheduler10components3appsf_19___original_template
FNDA:0,_RNvNvNtCs9tQrTLhafAq_16claude_scheduler10components3appsg_19___original_template
FNDA:0,_RNvNvNtCs9tQrTLhafAq_16claude_scheduler10components3appsh_19___original_template
FNDA:0,_RNvNvNtCs9tQrTLhafAq_16claude_scheduler10components3appsi_19___original_template
FNDA:0,_RNvNvNtCs9tQrTLhafAq_16claude_scheduler10components3appsj_19___original_template
FNDA:0,_RNvNvNtCs9tQrTLhafAq_16claude_scheduler10components3appsk_19___original_template
FNDA:0,_RNCNCNCNCNvNtCs5mxsGHxdp9x_16claude_scheduler10components16schedule_checker00s_00Bb_
FNDA:0,_RNCNCNCNCNvNtCs5mxsGHxdp9x_16claude_scheduler10components3appsW_0s4_000Bb_
FNDA:0,_RNCNCNCNvNtCs5mxsGHxdp9x_16claude_scheduler10components16schedule_checker000B9_
FNDA:0,_RNCNCNCNvNtCs5mxsGHxdp9x_16claude_scheduler10components16schedule_checker00s0_0B9_
FNDA:0,_RNCNCNCNvNtCs5mxsGHxdp9x_16claude_scheduler10components16schedule_checker00s_0B9_
FNDA:0,_RNCNCNCNvNtCs5mxsGHxdp9x_16claude_scheduler10components3appsW_0s4_00B9_
FNDA:0,_RNCNCNCNvNtCs5mxsGHxdp9x_16claude_scheduler10components3appsa_000B9_
FNDA:0,_RNCNCNCNvNtCs5mxsGHxdp9x_16claude_scheduler10components3appsa_00s_0B9_
FNDA:0,_RNCNCNvNtCs5mxsGHxdp9x_16claude_scheduler10components16schedule_checker00B7_
FNDA:0,_RNCNCNvNtCs5mxsGHxdp9x_16claude_scheduler10components3apps16_00B7_
FNDA:0,_RNCNCNvNtCs5mxsGHxdp9x_16claude_scheduler10components3apps16_0s0_0B7_
FNDA:0,_RNCNCNvNtCs5mxsGHxdp9x_16claude_scheduler10components3apps16_0s1_0B7_
FNDA:0,_RNCNCNvNtCs5mxsGHxdp9x_16claude_scheduler10components3apps16_0s2_0B7_
FNDA:0,_RNCNCNvNtCs5mxsGHxdp9x_16claude_scheduler10components3apps16_0s_0B7_
FNDA:0,_RNCNCNvNtCs5mxsGHxdp9x_16claude_scheduler10components3apps1b_00B7_
FNDA:0,_RNCNCNvNtCs5mxsGHxdp9x_16claude_scheduler10components3apps1c_00B7_
FNDA:0,_RNCNCNvNtCs5mxsGHxdp9x_16claude_scheduler10components3apps8_00B7_
FNDA:0,_RNCNCNvNtCs5mxsGHxdp9x_16claude_scheduler10components3apps9_00B7_
FNDA:0,_RNCNCNvNtCs5mxsGHxdp9x_16claude_scheduler10components3appsW_00B7_
FNDA:0,_RNCNCNvNtCs5mxsGHxdp9x_16claude_scheduler10components3appsW_0s0_0B7_
FNDA:0,_RNCNCNvNtCs5mxsGHxdp9x_16claude_scheduler10components3appsW_0s1_0B7_
FNDA:0,_RNCNCNvNtCs5mxsGHxdp9x_16claude_scheduler10components3appsW_0s2_0B7_
FNDA:0,_RNCNCNvNtCs5mxsGHxdp9x_16claude_scheduler10components3appsW_0s3_0B7_
FNDA:0,_RNCNCNvNtCs5mxsGHxdp9x_16claude_scheduler10components3appsW_0s4_0B7_
FNDA:0,_RNCNCNvNtCs5mxsGHxdp9x_16claude_scheduler10components3appsW_0s_0B7_
FNDA:0,_RNCNCNvNtCs5mxsGHxdp9x_16claude_scheduler10components3appsa_00B7_
FNDA:0,_RNCNCNvNtCs5mxsGHxdp9x_16claude_scheduler10components3appsb_00B7_
FNDA:0,_RNCNCNvNtCs5mxsGHxdp9x_16claude_scheduler10components3appsy_00B7_
FNDA:0,_RNCNCNvNtCs5mxsGHxdp9x_16claude_scheduler10components3appsy_0s_0B7_
FNDA:0,_RNCNvNtCs5mxsGHxdp9x_16claude_scheduler10components16schedule_checker0B5_
FNDA:0,_RNCNvNtCs5mxsGHxdp9x_16claude_scheduler10components3app0B5_
FNDA:0,_RNCNvNtCs5mxsGHxdp9x_16claude_scheduler10components3apps10_0B5_
FNDA:0,_RNCNvNtCs5mxsGHxdp9x_16claude_scheduler10components3apps11_0B5_
FNDA:0,_RNCNvNtCs5mxsGHxdp9x_16claude_scheduler10components3apps12_0B5_
FNDA:0,_RNCNvNtCs5mxsGHxdp9x_16claude_scheduler10components3apps13_0B5_
FNDA:0,_RNCNvNtCs5mxsGHxdp9x_16claude_scheduler10components3apps14_0B5_
FNDA:0,_RNCNvNtCs5mxsGHxdp9x_16claude_scheduler10components3apps15_0B5_
FNDA:0,_RNCNvNtCs5mxsGHxdp9x_16claude_scheduler10components3apps16_0B5_
FNDA:0,_RNCNvNtCs5mxsGHxdp9x_16claude_scheduler10components3apps17_0B5_
FNDA:0,_RNCNvNtCs5mxsGHxdp9x_16claude_scheduler10components3apps18_0B5_
FNDA:0,_RNCNvNtCs5mxsGHxdp9x_16claude_scheduler10components3apps19_0B5_
FNDA:0,_RNCNvNtCs5mxsGHxdp9x_16claude_scheduler10components3apps1a_0B5_
FNDA:0,_RNCNvNtCs5mxsGHxdp9x_16claude_scheduler10components3apps1b_0B5_
FNDA:0,_RNCNvNtCs5mxsGHxdp9x_16claude_scheduler10components3apps1c_0B5_
FNDA:0,_RNCNvNtCs5mxsGHxdp9x_16claude_scheduler10components3apps1d_0B5_
FNDA:0,_RNCNvNtCs5mxsGHxdp9x_16claude_scheduler10components3apps1e_0B5_
FNDA:0,_RNCNvNtCs5mxsGHxdp9x_16claude_scheduler10components3apps1f_0B5_
FNDA:0,_RNCNvNtCs5mxsGHxdp9x_16claude_scheduler10components3apps1g_0B5_
FNDA:0,_RNCNvNtCs5mxsGHxdp9x_16claude_scheduler10components3apps1h_0B5_
FNDA:0,_RNCNvNtCs5mxsGHxdp9x_16claude_scheduler10components3apps8_0B5_
FNDA:0,_RNCNvNtCs5mxsGHxdp9x_16claude_scheduler10components3apps9_0B5_
FNDA:0,_RNCNvNtCs5mxsGHxdp9x_16claude_scheduler10components3appsA_0B5_
FNDA:0,_RNCNvNtCs5mxsGHxdp9x_16claude_scheduler10components3appsB_0B5_
FNDA:0,_RNCNvNtCs5mxsGHxdp9x_16claude_scheduler10components3appsC_0B5_
FNDA:0,_RNCNvNtCs5mxsGHxdp9x_16claude_scheduler10components3appsD_0B5_
FNDA:0,_RNCNvNtCs5mxsGHxdp9x_16claude_scheduler10components3appsE_0B5_
FNDA:0,_RNCNvNtCs5mxsGHxdp9x_16claude_scheduler10components3appsF_0B5_
FNDA:0,_RNCNvNtCs5mxsGHxdp9x_16claude_scheduler10components3appsG_0B5_
FNDA:0,_RNCNvNtCs5mxsGHxdp9x_16claude_scheduler10components3appsH_0B5_
FNDA:0,_RNCNvNtCs5mxsGHxdp9x_16claude_scheduler10components3appsI_0B5_
FNDA:0,_RNCNvNtCs5mxsGHxdp9x_16claude_scheduler10components3appsJ_0B5_
FNDA:0,_RNCNvNtCs5mxsGHxdp9x_16claude_scheduler10components3appsK_0B5_
FNDA:0,_RNCNvNtCs5mxsGHxdp9x_16claude_scheduler10components3appsL_0B5_
FNDA:0,_RNCNvNtCs5mxsGHxdp9x_16claude_scheduler10components3appsM_0B5_
FNDA:0,_RNCNvNtCs5mxsGHxdp9x_16claude_scheduler10components3appsN_0B5_
FNDA:0,_RNCNvNtCs5mxsGHxdp9x_16claude_scheduler10components3appsO_0B5_
FNDA:0,_RNCNvNtCs5mxsGHxdp9x_16claude_scheduler10components3appsP_0B5_
FNDA:0,_RNCNvNtCs5mxsGHxdp9x_16claude_scheduler10components3appsQ_0B5_
FNDA:0,_RNCNvNtCs5mxsGHxdp9x_16claude_scheduler10components3appsR_0B5_
FNDA:0,_RNCNvNtCs5mxsGHxdp9x_16claude_scheduler10components3appsS_0B5_
FNDA:0,_RNCNvNtCs5mxsGHxdp9x_16claude_scheduler10components3appsT_0B5_
FNDA:0,_RNCNvNtCs5mxsGHxdp9x_16claude_scheduler10components3appsU_0B5_
FNDA:0,_RNCNvNtCs5mxsGHxdp9x_16claude_scheduler10components3appsV_0B5_
FNDA:0,_RNCNvNtCs5mxsGHxdp9x_16claude_scheduler10components3appsW_0B5_
FNDA:0,_RNCNvNtCs5mxsGHxdp9x_16claude_scheduler10components3appsX_0B5_
FNDA:0,_RNCNvNtCs5mxsGHxdp9x_16claude_scheduler10components3appsY_0B5_
FNDA:0,_RNCNvNtCs5mxsGHxdp9x_16claude_scheduler10components3appsZ_0B5_
FNDA:0,_RNCNvNtCs5mxsGHxdp9x_16claude_scheduler10components3appsa_0B5_
FNDA:0,_RNCNvNtCs5mxsGHxdp9x_16claude_scheduler10components3appsb_0B5_
FNDA:0,_RNCNvNtCs5mxsGHxdp9x_16claude_scheduler10components3appsc_0B5_
FNDA:0,_RNCNvNtCs5mxsGHxdp9x_16claude_scheduler10components3appsd_0B5_
FNDA:0,_RNCNvNtCs5mxsGHxdp9x_16claude_scheduler10components3appse_0B5_
FNDA:0,_RNCNvNtCs5mxsGHxdp9x_16claude_scheduler10components3appsf_0B5_
FNDA:0,_RNCNvNtCs5mxsGHxdp9x_16claude_scheduler10components3appsg_0B5_
FNDA:0,_RNCNvNtCs5mxsGHxdp9x_16claude_scheduler10components3appsh_0B5_
FNDA:0,_RNCNvNtCs5mxsGHxdp9x_16claude_scheduler10components3appsi_0B5_
FNDA:0,_RNCNvNtCs5mxsGHxdp9x_16claude_scheduler10components3appsj_0B5_
FNDA:0,_RNCNvNtCs5mxsGHxdp9x_16claude_scheduler10components3appsk_0B5_
FNDA:0,_RNCNvNtCs5mxsGHxdp9x_16claude_scheduler10components3appsl_0B5_
FNDA:0,_RNCNvNtCs5mxsGHxdp9x_16claude_scheduler10components3appsm_0B5_
FNDA:0,_RNCNvNtCs5mxsGHxdp9x_16claude_scheduler10components3appsn_0B5_
FNDA:0,_RNCNvNtCs5mxsGHxdp9x_16claude_scheduler10components3appso_0B5_
FNDA:0,_RNCNvNtCs5mxsGHxdp9x_16claude_scheduler10components3appsp_0B5_
FNDA:0,_RNCNvNtCs5mxsGHxdp9x_16claude_scheduler10components3appsq_0B5_
FNDA:0,_RNCNvNtCs5mxsGHxdp9x_16claude_scheduler10components3appsr_0B5_
FNDA:0,_RNCNvNtCs5mxsGHxdp9x_16claude_scheduler10components3appss_0B5_
FNDA:0,_RNCNvNtCs5mxsGHxdp9x_16claude_scheduler10components3appst_0B5_
FNDA:0,_RNCNvNtCs5mxsGHxdp9x_16claude_scheduler10components3appsu_0B5_
FNDA:0,_RNCNvNtCs5mxsGHxdp9x_16claude_scheduler10components3appsv_0B5_
FNDA:0,_RNCNvNtCs5mxsGHxdp9x_16claude_scheduler10components3appsw_0B5_
FNDA:0,_RNCNvNtCs5mxsGHxdp9x_16claude_scheduler10components3appsx_0B5_
FNDA:0,_RNCNvNtCs5mxsGHxdp9x_16claude_scheduler10components3appsy_0B5_
FNDA:0,_RNCNvNtCs5mxsGHxdp9x_16claude_scheduler10components3appsz_0B5_
FNDA:0,_RNvNCNvNtCs5mxsGHxdp9x_16claude_scheduler10components3apps16_019___original_template
FNDA:0,_RNvNCNvNtCs5mxsGHxdp9x_16claude_scheduler10components3apps16_0s_19___original_template
FNDA:0,_RNvNCNvNtCs5mxsGHxdp9x_16claude_scheduler10components3appsW_019___original_template
FNDA:0,_RNvNCNvNtCs5mxsGHxdp9x_16claude_scheduler10components3appsW_0s0_19___original_template
FNDA:0,_RNvNCNvNtCs5mxsGHxdp9x_16claude_scheduler10components3appsW_0s_19___original_template
FNDA:0,_RNvNCNvNtCs5mxsGHxdp9x_16claude_scheduler10components3appsy_019___original_template
FNDA:0,_RNvNtCs5mxsGHxdp9x_16claude_scheduler10components16schedule_checker
FNDA:0,_RNvNtCs5mxsGHxdp9x_16claude_scheduler10components3app
FNDA:0,_RNvNvNtCs5mxsGHxdp9x_16claude_scheduler10components3app19___original_template
FNDA:0,_RNvNvNtCs5mxsGHxdp9x_16claude_scheduler10components3apps0_19___original_template
FNDA:0,_RNvNvNtCs5mxsGHxdp9x_16claude_scheduler10components3apps1_19___original_template
FNDA:0,_RNvNvNtCs5mxsGHxdp9x_16claude_scheduler10components3apps2_19___original_template
FNDA:0,_RNvNvNtCs5mxsGHxdp9x_16claude_scheduler10components3apps3_19___original_template
FNDA:0,_RNvNvNtCs5mxsGHxdp9x_16claude_scheduler10components3apps4_19___original_template
FNDA:0,_RNvNvNtCs5mxsGHxdp9x_16claude_scheduler10components3apps5_19___original_template
FNDA:0,_RNvNvNtCs5mxsGHxdp9x_16claude_scheduler10components3apps6_19___original_template
FNDA:0,_RNvNvNtCs5mxsGHxdp9x_16claude_scheduler10components3apps7_19___original_template
FNDA:0,_RNvNvNtCs5mxsGHxdp9x_16claude_scheduler10components3apps8_19___original_template
FNDA:0,_RNvNvNtCs5mxsGHxdp9x_16claude_scheduler10components3apps9_19___original_template
FNDA:0,_RNvNvNtCs5mxsGHxdp9x_16claude_scheduler10components3apps_19___original_template
FNDA:0,_RNvNvNtCs5mxsGHxdp9x_16claude_scheduler10components3appsa_19___original_template
FNDA:0,_RNvNvNtCs5mxsGHxdp9x_16claude_scheduler10components3appsb_19___original_template
FNDA:0,_RNvNvNtCs5mxsGHxdp9x_16claude_scheduler10components3appsc_19___original_template
FNDA:0,_RNvNvNtCs5mxsGHxdp9x_16claude_scheduler10components3appsd_19___original_template
FNDA:0,_RNvNvNtCs5mxsGHxdp9x_16claude_scheduler10components3appse_19___original_template
FNDA:0,_RNvNvNtCs5mxsGHxdp9x_16claude_scheduler10components3appsf_19___original_template
FNDA:0,_RNvNvNtCs5mxsGHxdp9x_16claude_scheduler10components3appsg_19___original_template
FNDA:0,_RNvNvNtCs5mxsGHxdp9x_16claude_scheduler10components3appsh_19___original_template
FNDA:0,_RNvNvNtCs5mxsGHxdp9x_16claude_scheduler10components3appsi_19___original_template
FNDA:0,_RNvNvNtCs5mxsGHxdp9x_16claude_scheduler10components3appsj_19___original_template
FNDA:0,_RNvNvNtCs5mxsGHxdp9x_16claude_scheduler10components3appsk_19___original_template
FNDA:0,_RNCNvNCNvNtCs5mxsGHxdp9x_16claude_scheduler10components3apps16_010___TEMPLATE0B9_
FNDA:0,_RNCNvNCNvNtCs5mxsGHxdp9x_16claude_scheduler10components3apps16_0s_10___TEMPLATE0B9_
FNDA:0,_RNCNvNCNvNtCs5mxsGHxdp9x_16claude_scheduler10components3appsW_010___TEMPLATE0B9_
FNDA:0,_RNCNvNCNvNtCs5mxsGHxdp9x_16claude_scheduler10components3appsW_0s0_10___TEMPLATE0B9_
FNDA:0,_RNCNvNCNvNtCs5mxsGHxdp9x_16claude_scheduler10components3appsW_0s_10___TEMPLATE0B9_
FNDA:0,_RNCNvNCNvNtCs5mxsGHxdp9x_16claude_scheduler10components3appsy_010___TEMPLATE0B9_
FNDA:0,_RNCNvNvNtCs5mxsGHxdp9x_16claude_scheduler10components3app10___TEMPLATE0B7_
FNDA:0,_RNCNvNvNtCs5mxsGHxdp9x_16claude_scheduler10components3apps0_10___TEMPLATE0B7_
FNDA:0,_RNCNvNvNtCs5mxsGHxdp9x_16claude_scheduler10components3apps1_10___TEMPLATE0B7_
FNDA:0,_RNCNvNvNtCs5mxsGHxdp9x_16claude_scheduler10components3apps2_10___TEMPLATE0B7_
FNDA:0,_RNCNvNvNtCs5mxsGHxdp9x_16claude_scheduler10components3apps3_10___TEMPLATE0B7_
FNDA:0,_RNCNvNvNtCs5mxsGHxdp9x_16claude_scheduler10components3apps4_10___TEMPLATE0B7_
FNDA:0,_RNCNvNvNtCs5mxsGHxdp9x_16claude_scheduler10components3apps5_10___TEMPLATE0B7_
FNDA:0,_RNCNvNvNtCs5mxsGHxdp9x_16claude_scheduler10components3apps6_10___TEMPLATE0B7_
FNDA:0,_RNCNvNvNtCs5mxsGHxdp9x_16claude_scheduler10components3apps7_10___TEMPLATE0B7_
FNDA:0,_RNCNvNvNtCs5mxsGHxdp9x_16claude_scheduler10components3apps8_10___TEMPLATE0B7_
FNDA:0,_RNCNvNvNtCs5mxsGHxdp9x_16claude_scheduler10components3apps9_10___TEMPLATE0B7_
FNDA:0,_RNCNvNvNtCs5mxsGHxdp9x_16claude_scheduler10components3apps_10___TEMPLATE0B7_
FNDA:0,_RNCNvNvNtCs5mxsGHxdp9x_16claude_scheduler10components3appsa_10___TEMPLATE0B7_
FNDA:0,_RNCNvNvNtCs5mxsGHxdp9x_16claude_scheduler10components3appsb_10___TEMPLATE0B7_
FNDA:0,_RNCNvNvNtCs5mxsGHxdp9x_16claude_scheduler10components3appsc_10___TEMPLATE0B7_
FNDA:0,_RNCNvNvNtCs5mxsGHxdp9x_16claude_scheduler10components3appsd_10___TEMPLATE0B7_
FNDA:0,_RNCNvNvNtCs5mxsGHxdp9x_16claude_scheduler10components3appse_10___TEMPLATE0B7_
FNDA:0,_RNCNvNvNtCs5mxsGHxdp9x_16claude_scheduler10components3appsf_10___TEMPLATE0B7_
FNDA:0,_RNCNvNvNtCs5mxsGHxdp9x_16claude_scheduler10components3appsg_10___TEMPLATE0B7_
FNDA:0,_RNCNvNvNtCs5mxsGHxdp9x_16claude_scheduler10components3appsh_10___TEMPLATE0B7_
FNDA:0,_RNCNvNvNtCs5mxsGHxdp9x_16claude_scheduler10components3appsi_10___TEMPLATE0B7_
FNDA:0,_RNCNvNvNtCs5mxsGHxdp9x_16claude_scheduler10components3appsj_10___TEMPLATE0B7_
FNDA:0,_RNCNvNvNtCs5mxsGHxdp9x_16claude_scheduler10components3appsk_10___TEMPLATE0B7_
FNF:45
FNH:0
DA:14,0
DA:15,0
DA:16,0
DA:17,0
DA:18,0
DA:19,0
DA:21,0
DA:23,0
DA:24,0
DA:25,0
DA:26,0
DA:27,0
DA:28,0
DA:29,0
DA:30,0
DA:31,0
DA:32,0
DA:34,0
DA:36,0
DA:37,0
DA:38,0
DA:40,0
DA:41,0
DA:42,0
DA:43,0
DA:44,0
DA:45,0
DA:46,0
DA:47,0
DA:50,0
DA:51,0
DA:52,0
DA:53,0
DA:54,0
DA:55,0
DA:56,0
DA:57,0
DA:58,0
DA:61,0
DA:64,0
DA:65,0
DA:66,0
DA:67,0
DA:69,0
DA:70,0
DA:72,0
DA:75,0
DA:79,0
DA:80,0
DA:81,0
DA:82,0
DA:83,0
DA:86,0
DA:87,0
DA:88,0
DA:89,0
DA:90,0
DA:91,0
DA:92,0
DA:94,0
DA:96,0
DA:97,0
DA:98,0
DA:99,0
DA:100,0
DA:103,0
DA:107,0
DA:108,0
DA:111,0
DA:112,0
DA:114,0
DA:118,0
DA:119,0
DA:120,0
DA:121,0
DA:122,0
DA:124,0
DA:125,0
DA:126,0
DA:156,0
DA:157,0
DA:158,0
DA:160,0
DA:161,0
DA:162,0
DA:163,0
DA:164,0
DA:167,0
DA:170,0
DA:173,0
DA:174,0
DA:177,0
DA:178,0
DA:179,0
DA:180,0
DA:181,0
DA:182,0
DA:183,0
DA:184,0
DA:185,0
DA:187,0
DA:190,0
DA:191,0
DA:192,0
DA:193,0
DA:194,0
DA:195,0
DA:196,0
DA:199,0
DA:202,0
DA:203,0
DA:204,0
DA:205,0
DA:206,0
DA:208,0
DA:210,0
DA:211,0
DA:212,0
DA:213,0
DA:214,0
DA:215,0
DA:217,0
DA:218,0
DA:219,0
DA:220,0
DA:221,0
DA:222,0
DA:223,0
DA:227,0
DA:228,0
DA:230,0
DA:231,0
DA:232,0
DA:233,0
DA:234,0
DA:235,0
DA:236,0
DA:237,0
DA:239,0
DA:242,0
DA:243,0
DA:244,0
DA:245,0
DA:247,0
DA:248,0
DA:249,0
DA:250,0
DA:251,0
DA:252,0
DA:253,0
DA:254,0
DA:255,0
DA:257,0
DA:258,0
DA:259,0
DA:260,0
DA:261,0
DA:262,0
DA:263,0
DA:264,0
DA:265,0
DA:269,0
DA:270,0
DA:271,0
DA:272,0
DA:273,0
DA:274,0
DA:276,0
DA:278,0
DA:279,0
DA:280,0
DA:281,0
DA:283,0
DA:285,0
DA:286,0
DA:287,0
DA:289,0
DA:291,0
DA:293,0
DA:294,0
DA:295,0
DA:298,0
DA:299,0
DA:300,0
DA:301,0
DA:302,0
DA:303,0
DA:305,0
DA:307,0
DA:308,0
DA:309,0
DA:310,0
DA:312,0
DA:314,0
DA:315,0
DA:316,0
DA:318,0
DA:320,0
DA:324,0
DA:325,0
DA:326,0
DA:329,0
DA:330,0
DA:331,0
DA:332,0
DA:333,0
DA:334,0
DA:335,0
DA:336,0
DA:337,0
DA:339,0
DA:342,0
DA:343,0
DA:344,0
DA:345,0
DA:346,0
DA:347,0
DA:348,0
DA:349,0
DA:350,0
DA:351,0
DA:353,0
DA:355,0
DA:356,0
DA:357,0
DA:360,0
DA:361,0
DA:364,0
DA:365,0
DA:366,0
DA:367,0
DA:368,0
DA:369,0
DA:372,0
DA:373,0
DA:374,0
DA:375,0
DA:377,0
DA:378,0
DA:379,0
DA:380,0
DA:381,0
DA:382,0
DA:383,0
DA:384,0
DA:385,0
DA:386,0
DA:389,0
DA:390,0
DA:391,0
DA:392,0
DA:393,0
DA:394,0
DA:397,0
DA:415,0
DA:416,0
DA:417,0
DA:418,0
DA:419,0
DA:420,0
DA:421,0
DA:422,0
DA:423,0
DA:424,0
DA:425,0
DA:426,0
DA:427,0
DA:428,0
DA:429,0
DA:430,0
DA:431,0
DA:432,0
DA:433,0
DA:434,0
DA:435,0
DA:436,0
DA:437,0
DA:438,0
DA:439,0
DA:440,0
DA:445,0
DA:448,0
DA:452,0
DA:456,0
DA:457,0
DA:461,0
DA:462,0
DA:463,0
DA:467,0
DA:470,0
DA:476,0
DA:485,0
DA:491,0
DA:492,0
DA:493,0
DA:494,0
DA:497,0
DA:498,0
DA:501,0
DA:502,0
DA:504,0
DA:505,0
DA:506,0
DA:507,0
DA:508,0
DA:509,0
DA:510,0
DA:511,0
DA:512,0
DA:513,0
DA:514,0
DA:516,0
DA:520,0
DA:521,0
DA:522,0
DA:523,0
DA:524,0
DA:525,0
DA:526,0
DA:529,0
DA:530,0
DA:532,0
DA:533,0
DA:534,0
DA:535,0
DA:536,0
DA:537,0
DA:538,0
DA:539,0
DA:540,0
DA:541,0
DA:542,0
DA:547,0
DA:548,0
DA:549,0
DA:550,0
DA:551,0
DA:552,0
DA:554,0
DA:555,0
DA:556,0
DA:557,0
DA:558,0
DA:560,0
DA:561,0
DA:562,0
DA:565,0
DA:566,0
DA:568,0
DA:569,0
DA:570,0
DA:571,0
DA:572,0
DA:573,0
DA:574,0
DA:575,0
DA:576,0
DA:577,0
DA:578,0
DA:579,0
DA:580,0
DA:584,0
DA:586,0
DA:587,0
DA:594,0
DA:595,0
DA:596,0
DA:616,0
DA:624,0
DA:630,0
DA:631,0
DA:632,0
DA:635,0
DA:636,0
DA:637,0
DA:638,0
DA:639,0
DA:640,0
DA:641,0
DA:645,0
DA:646,0
DA:647,0
DA:655,0
DA:657,0
DA:658,0
DA:664,0
DA:672,0
DA:677,0
DA:678,0
DA:679,0
DA:681,0
DA:691,0
DA:707,0
DA:708,0
DA:721,0
DA:722,0
DA:736,0
DA:739,0
DA:740,0
DA:744,0
DA:750,0
DA:753,0
DA:756,0
DA:757,0
DA:761,0
DA:769,0
DA:772,0
DA:773,0
DA:777,0
DA:787,0
DA:788,0
DA:789,0
DA:790,0
DA:796,0
DA:799,0
DA:802,0
DA:803,0
DA:807,0
DA:812,0
DA:819,0
DA:824,0
DA:828,0
DA:829,0
DA:836,0
DA:840,0
DA:841,0
DA:851,0
DA:859,0
DA:860,0
DA:861,0
DA:862,0
DA:863,0
DA:864,0
DA:865,0
DA:876,0
DA:881,0
DA:882,0
DA:883,0
DA:884,0
DA:885,0
DA:886,0
DA:887,0
DA:898,0
DA:900,0
DA:902,0
DA:913,0
DA:914,0
DA:921,0
DA:922,0
DA:924,0
DA:928,0
DA:929,0
DA:931,0
DA:935,0
DA:945,0
DA:948,0
DA:949,0
DA:952,0
DA:954,0
DA:958,0
DA:1009,0
DA:1010,0
DA:1011,0
DA:1012,0
DA:1013,0
DA:1026,0
DA:1031,0
DA:1032,0
DA:1035,0
DA:1037,0
DA:1044,0
DA:1046,0
DA:1054,0
DA:1056,0
DA:1064,0
DA:1065,0
DA:1069,0
DA:1070,0
DA:1072,0
DA:1073,0
DA:1078,0
DA:1088,0
DA:1092,0
DA:1104,0
DA:1109,0
DA:1115,0
DA:1174,0
DA:1175,0
DA:1176,0
DA:1178,0
DA:1179,0
DA:1205,0
DA:1207,0
DA:1208,0
DA:1215,0
DA:1216,0
BRF:0
BRH:0
LF:518
LH:0
end_of_record
SF:/Users/tt/workspace/claude-scheduler/src/config.rs
FN:50,_RNCNvMs_NtCs9tQrTLhafAq_16claude_scheduler6configNtB6_6Config4load0B8_
FN:64,_RNCNvMs_NtCs9tQrTLhafAq_16claude_scheduler6configNtB6_6Config4save0B8_
FN:77,_RNvMs_NtCs9tQrTLhafAq_16claude_scheduler6configNtB4_6Config13database_path
FN:50,_RNvMs_NtCs9tQrTLhafAq_16claude_scheduler6configNtB4_6Config4load
FN:64,_RNvMs_NtCs9tQrTLhafAq_16claude_scheduler6configNtB4_6Config4save
FN:89,_RNvNtCs9tQrTLhafAq_16claude_scheduler6config16config_file_path
FN:97,_RNvNtCs9tQrTLhafAq_16claude_scheduler6config21default_database_path
FN:32,_RNvXNtCs9tQrTLhafAq_16claude_scheduler6configNtB2_6ConfigNtNtCsfOTgFBkE765_4core7default7Default7default
FN:50,_RNCNvMs_NtCs5mxsGHxdp9x_16claude_scheduler6configNtB6_6Config4load0B8_
FN:64,_RNCNvMs_NtCs5mxsGHxdp9x_16claude_scheduler6configNtB6_6Config4save0B8_
FN:77,_RNvMs_NtCs5mxsGHxdp9x_16claude_scheduler6configNtB4_6Config13database_path
FN:50,_RNvMs_NtCs5mxsGHxdp9x_16claude_scheduler6configNtB4_6Config4load
FN:64,_RNvMs_NtCs5mxsGHxdp9x_16claude_scheduler6configNtB4_6Config4save
FN:89,_RNvNtCs5mxsGHxdp9x_16claude_scheduler6config16config_file_path
FN:97,_RNvNtCs5mxsGHxdp9x_16claude_scheduler6config21default_database_path
FN:32,_RNvXNtCs5mxsGHxdp9x_16claude_scheduler6configNtB2_6ConfigNtNtCsfOTgFBkE765_4core7default7Default7default
FNDA:0,_RNCNvMs_NtCs9tQrTLhafAq_16claude_scheduler6configNtB6_6Config4load0B8_
FNDA:0,_RNCNvMs_NtCs9tQrTLhafAq_16claude_scheduler6configNtB6_6Config4save0B8_
FNDA:0,_RNvMs_NtCs9tQrTLhafAq_16claude_scheduler6configNtB4_6Config13database_path
FNDA:0,_RNvMs_NtCs9tQrTLhafAq_16claude_scheduler6configNtB4_6Config4load
FNDA:0,_RNvMs_NtCs9tQrTLhafAq_16claude_scheduler6configNtB4_6Config4save
FNDA:0,_RNvNtCs9tQrTLhafAq_16claude_scheduler6config16config_file_path
FNDA:0,_RNvNtCs9tQrTLhafAq_16claude_scheduler6config21default_database_path
FNDA:0,_RNvXNtCs9tQrTLhafAq_16claude_scheduler6configNtB2_6ConfigNtNtCsfOTgFBkE765_4core7default7Default7default
FNDA:0,_RNCNvMs_NtCs5mxsGHxdp9x_16claude_scheduler6configNtB6_6Config4load0B8_
FNDA:0,_RNCNvMs_NtCs5mxsGHxdp9x_16claude_scheduler6configNtB6_6Config4save0B8_
FNDA:0,_RNvMs_NtCs5mxsGHxdp9x_16claude_scheduler6configNtB4_6Config13database_path
FNDA:0,_RNvMs_NtCs5mxsGHxdp9x_16claude_scheduler6configNtB4_6Config4load
FNDA:0,_RNvMs_NtCs5mxsGHxdp9x_16claude_scheduler6configNtB4_6Config4save
FNDA:0,_RNvNtCs5mxsGHxdp9x_16claude_scheduler6config16config_file_path
FNDA:0,_RNvNtCs5mxsGHxdp9x_16claude_scheduler6config21default_database_path
FNDA:0,_RNvXNtCs5mxsGHxdp9x_16claude_scheduler6configNtB2_6ConfigNtNtCsfOTgFBkE765_4core7default7Default7default
FNF:8
FNH:0
DA:32,0
DA:33,0
DA:34,0
DA:35,0
DA:36,0
DA:37,0
DA:38,0
DA:39,0
DA:40,0
DA:41,0
DA:42,0
DA:43,0
DA:44,0
DA:45,0
DA:46,0
DA:50,0
DA:51,0
DA:53,0
DA:54,0
DA:55,0
DA:56,0
DA:58,0
DA:59,0
DA:60,0
DA:62,0
DA:64,0
DA:65,0
DA:68,0
DA:69,0
DA:70,0
DA:72,0
DA:73,0
DA:74,0
DA:75,0
DA:77,0
DA:79,0
DA:80,0
DA:81,0
DA:82,0
DA:83,0
DA:84,0
DA:85,0
DA:86,0
DA:89,0
DA:90,0
DA:91,0
DA:93,0
DA:95,0
DA:97,0
DA:98,0
DA:99,0
DA:101,0
DA:103,0
BRF:0
BRH:0
LF:55
LH:0
end_of_record
SF:/Users/tt/workspace/claude-scheduler/src/database.rs
FN:141,_RNCNCNCNCNvMNtCs9tQrTLhafAq_16claude_scheduler8databaseNtBa_8Database13get_schedules0000Bc_
FN:264,_RNCNCNCNCNvMNtCs9tQrTLhafAq_16claude_scheduler8databaseNtBa_8Database21get_execution_history0000Bc_
FN:139,_RNCNCNCNvMNtCs9tQrTLhafAq_16claude_scheduler8databaseNtB8_8Database13get_schedules000Ba_
FN:262,_RNCNCNCNvMNtCs9tQrTLhafAq_16claude_scheduler8databaseNtB8_8Database21get_execution_history000Ba_
FN:131,_RNCNCNvMNtCs9tQrTLhafAq_16claude_scheduler8databaseNtB6_8Database13get_schedules00B8_
FN:252,_RNCNCNvMNtCs9tQrTLhafAq_16claude_scheduler8databaseNtB6_8Database21get_execution_history00B8_
FN:287,_RNCNvMNtCs9tQrTLhafAq_16claude_scheduler8databaseNtB4_8Database10get_config0B6_
FN:27,_RNCNvMNtCs9tQrTLhafAq_16claude_scheduler8databaseNtB4_8Database10initialize0B6_
FN:297,_RNCNvMNtCs9tQrTLhafAq_16claude_scheduler8databaseNtB4_8Database10set_config0B6_
FN:113,_RNCNvMNtCs9tQrTLhafAq_16claude_scheduler8databaseNtB4_8Database13get_schedules0B6_
FN:312,_RNCNvMNtCs9tQrTLhafAq_16claude_scheduler8databaseNtB4_8Database14get_all_config0B6_
FN:85,_RNCNvMNtCs9tQrTLhafAq_16claude_scheduler8databaseNtB4_8Database15create_schedule0B6_
FN:209,_RNCNvMNtCs9tQrTLhafAq_16claude_scheduler8databaseNtB4_8Database21get_execution_history0B6_
FN:163,_RNCNvMNtCs9tQrTLhafAq_16claude_scheduler8databaseNtB4_8Database22update_schedule_status0B6_
FN:178,_RNCNvMNtCs9tQrTLhafAq_16claude_scheduler8databaseNtB4_8Database24create_execution_history0B6_
FN:13,_RNCNvMNtCs9tQrTLhafAq_16claude_scheduler8databaseNtB4_8Database3new0B6_
FN:287,_RNvMNtCs9tQrTLhafAq_16claude_scheduler8databaseNtB2_8Database10get_config
FN:27,_RNvMNtCs9tQrTLhafAq_16claude_scheduler8databaseNtB2_8Database10initialize
FN:297,_RNvMNtCs9tQrTLhafAq_16claude_scheduler8databaseNtB2_8Database10set_config
FN:109,_RNvMNtCs9tQrTLhafAq_16claude_scheduler8databaseNtB2_8Database13get_schedules
FN:312,_RNvMNtCs9tQrTLhafAq_16claude_scheduler8databaseNtB2_8Database14get_all_config
FN:85,_RNvMNtCs9tQrTLhafAq_16claude_scheduler8databaseNtB2_8Database15create_schedule
FN:201,_RNvMNtCs9tQrTLhafAq_16claude_scheduler8databaseNtB2_8Database21get_execution_history
FN:163,_RNvMNtCs9tQrTLhafAq_16claude_scheduler8databaseNtB2_8Database22update_schedule_status
FN:178,_RNvMNtCs9tQrTLhafAq_16claude_scheduler8databaseNtB2_8Database24create_execution_history
FN:13,_RNvMNtCs9tQrTLhafAq_16claude_scheduler8databaseNtB2_8Database3new
FN:141,_RNCNCNCNCNvMNtCs5mxsGHxdp9x_16claude_scheduler8databaseNtBa_8Database13get_schedules0000Bc_
FN:264,_RNCNCNCNCNvMNtCs5mxsGHxdp9x_16claude_scheduler8databaseNtBa_8Database21get_execution_history0000Bc_
FN:139,_RNCNCNCNvMNtCs5mxsGHxdp9x_16claude_scheduler8databaseNtB8_8Database13get_schedules000Ba_
FN:262,_RNCNCNCNvMNtCs5mxsGHxdp9x_16claude_scheduler8databaseNtB8_8Database21get_execution_history000Ba_
FN:131,_RNCNCNvMNtCs5mxsGHxdp9x_16claude_scheduler8databaseNtB6_8Database13get_schedules00B8_
FN:252,_RNCNCNvMNtCs5mxsGHxdp9x_16claude_scheduler8databaseNtB6_8Database21get_execution_history00B8_
FN:287,_RNCNvMNtCs5mxsGHxdp9x_16claude_scheduler8databaseNtB4_8Database10get_config0B6_
FN:27,_RNCNvMNtCs5mxsGHxdp9x_16claude_scheduler8databaseNtB4_8Database10initialize0B6_
FN:297,_RNCNvMNtCs5mxsGHxdp9x_16claude_scheduler8databaseNtB4_8Database10set_config0B6_
FN:113,_RNCNvMNtCs5mxsGHxdp9x_16claude_scheduler8databaseNtB4_8Database13get_schedules0B6_
FN:312,_RNCNvMNtCs5mxsGHxdp9x_16claude_scheduler8databaseNtB4_8Database14get_all_config0B6_
FN:85,_RNCNvMNtCs5mxsGHxdp9x_16claude_scheduler8databaseNtB4_8Database15create_schedule0B6_
FN:209,_RNCNvMNtCs5mxsGHxdp9x_16claude_scheduler8databaseNtB4_8Database21get_execution_history0B6_
FN:163,_RNCNvMNtCs5mxsGHxdp9x_16claude_scheduler8databaseNtB4_8Database22update_schedule_status0B6_
FN:178,_RNCNvMNtCs5mxsGHxdp9x_16claude_scheduler8databaseNtB4_8Database24create_execution_history0B6_
FN:13,_RNCNvMNtCs5mxsGHxdp9x_16claude_scheduler8databaseNtB4_8Database3new0B6_
FN:287,_RNvMNtCs5mxsGHxdp9x_16claude_scheduler8databaseNtB2_8Database10get_config
FN:27,_RNvMNtCs5mxsGHxdp9x_16claude_scheduler8databaseNtB2_8Database10initialize
FN:297,_RNvMNtCs5mxsGHxdp9x_16claude_scheduler8databaseNtB2_8Database10set_config
FN:109,_RNvMNtCs5mxsGHxdp9x_16claude_scheduler8databaseNtB2_8Database13get_schedules
FN:312,_RNvMNtCs5mxsGHxdp9x_16claude_scheduler8databaseNtB2_8Database14get_all_config
FN:85,_RNvMNtCs5mxsGHxdp9x_16claude_scheduler8databaseNtB2_8Database15create_schedule
FN:201,_RNvMNtCs5mxsGHxdp9x_16claude_scheduler8databaseNtB2_8Database21get_execution_history
FN:163,_RNvMNtCs5mxsGHxdp9x_16claude_scheduler8databaseNtB2_8Database22update_schedule_status
FN:178,_RNvMNtCs5mxsGHxdp9x_16claude_scheduler8databaseNtB2_8Database24create_execution_history
FN:13,_RNvMNtCs5mxsGHxdp9x_16claude_scheduler8databaseNtB2_8Database3new
FNDA:0,_RNCNCNCNCNvMNtCs9tQrTLhafAq_16claude_scheduler8databaseNtBa_8Database13get_schedules0000Bc_
FNDA:0,_RNCNCNCNCNvMNtCs9tQrTLhafAq_16claude_scheduler8databaseNtBa_8Database21get_execution_history0000Bc_
FNDA:0,_RNCNCNCNvMNtCs9tQrTLhafAq_16claude_scheduler8databaseNtB8_8Database13get_schedules000Ba_
FNDA:0,_RNCNCNCNvMNtCs9tQrTLhafAq_16claude_scheduler8databaseNtB8_8Database21get_execution_history000Ba_
FNDA:0,_RNCNCNvMNtCs9tQrTLhafAq_16claude_scheduler8databaseNtB6_8Database13get_schedules00B8_
FNDA:0,_RNCNCNvMNtCs9tQrTLhafAq_16claude_scheduler8databaseNtB6_8Database21get_execution_history00B8_
FNDA:0,_RNCNvMNtCs9tQrTLhafAq_16claude_scheduler8databaseNtB4_8Database10get_config0B6_
FNDA:0,_RNCNvMNtCs9tQrTLhafAq_16claude_scheduler8databaseNtB4_8Database10initialize0B6_
FNDA:0,_RNCNvMNtCs9tQrTLhafAq_16claude_scheduler8databaseNtB4_8Database10set_config0B6_
FNDA:0,_RNCNvMNtCs9tQrTLhafAq_16claude_scheduler8databaseNtB4_8Database13get_schedules0B6_
FNDA:0,_RNCNvMNtCs9tQrTLhafAq_16claude_scheduler8databaseNtB4_8Database14get_all_config0B6_
FNDA:0,_RNCNvMNtCs9tQrTLhafAq_16claude_scheduler8databaseNtB4_8Database15create_schedule0B6_
FNDA:0,_RNCNvMNtCs9tQrTLhafAq_16claude_scheduler8databaseNtB4_8Database21get_execution_history0B6_
FNDA:0,_RNCNvMNtCs9tQrTLhafAq_16claude_scheduler8databaseNtB4_8Database22update_schedule_status0B6_
FNDA:0,_RNCNvMNtCs9tQrTLhafAq_16claude_scheduler8databaseNtB4_8Database24create_execution_history0B6_
FNDA:0,_RNCNvMNtCs9tQrTLhafAq_16claude_scheduler8databaseNtB4_8Database3new0B6_
FNDA:0,_RNvMNtCs9tQrTLhafAq_16claude_scheduler8databaseNtB2_8Database10get_config
FNDA:0,_RNvMNtCs9tQrTLhafAq_16claude_scheduler8databaseNtB2_8Database10initialize
FNDA:0,_RNvMNtCs9tQrTLhafAq_16claude_scheduler8databaseNtB2_8Database10set_config
FNDA:0,_RNvMNtCs9tQrTLhafAq_16claude_scheduler8databaseNtB2_8Database13get_schedules
FNDA:0,_RNvMNtCs9tQrTLhafAq_16claude_scheduler8databaseNtB2_8Database14get_all_config
FNDA:0,_RNvMNtCs9tQrTLhafAq_16claude_scheduler8databaseNtB2_8Database15create_schedule
FNDA:0,_RNvMNtCs9tQrTLhafAq_16claude_scheduler8databaseNtB2_8Database21get_execution_history
FNDA:0,_RNvMNtCs9tQrTLhafAq_16claude_scheduler8databaseNtB2_8Database22update_schedule_status
FNDA:0,_RNvMNtCs9tQrTLhafAq_16claude_scheduler8databaseNtB2_8Database24create_execution_history
FNDA:0,_RNvMNtCs9tQrTLhafAq_16claude_scheduler8databaseNtB2_8Database3new
FNDA:0,_RNCNCNCNCNvMNtCs5mxsGHxdp9x_16claude_scheduler8databaseNtBa_8Database13get_schedules0000Bc_
FNDA:0,_RNCNCNCNCNvMNtCs5mxsGHxdp9x_16claude_scheduler8databaseNtBa_8Database21get_execution_history0000Bc_
FNDA:0,_RNCNCNCNvMNtCs5mxsGHxdp9x_16claude_scheduler8databaseNtB8_8Database13get_schedules000Ba_
FNDA:0,_RNCNCNCNvMNtCs5mxsGHxdp9x_16claude_scheduler8databaseNtB8_8Database21get_execution_history000Ba_
FNDA:0,_RNCNCNvMNtCs5mxsGHxdp9x_16claude_scheduler8databaseNtB6_8Database13get_schedules00B8_
FNDA:0,_RNCNCNvMNtCs5mxsGHxdp9x_16claude_scheduler8databaseNtB6_8Database21get_execution_history00B8_
FNDA:0,_RNCNvMNtCs5mxsGHxdp9x_16claude_scheduler8databaseNtB4_8Database10get_config0B6_
FNDA:0,_RNCNvMNtCs5mxsGHxdp9x_16claude_scheduler8databaseNtB4_8Database10initialize0B6_
FNDA:0,_RNCNvMNtCs5mxsGHxdp9x_16claude_scheduler8databaseNtB4_8Database10set_config0B6_
FNDA:0,_RNCNvMNtCs5mxsGHxdp9x_16claude_scheduler8databaseNtB4_8Database13get_schedules0B6_
FNDA:0,_RNCNvMNtCs5mxsGHxdp9x_16claude_scheduler8databaseNtB4_8Database14get_all_config0B6_
FNDA:0,_RNCNvMNtCs5mxsGHxdp9x_16claude_scheduler8databaseNtB4_8Database15create_schedule0B6_
FNDA:0,_RNCNvMNtCs5mxsGHxdp9x_16claude_scheduler8databaseNtB4_8Database21get_execution_history0B6_
FNDA:0,_RNCNvMNtCs5mxsGHxdp9x_16claude_scheduler8databaseNtB4_8Database22update_schedule_status0B6_
FNDA:0,_RNCNvMNtCs5mxsGHxdp9x_16claude_scheduler8databaseNtB4_8Database24create_execution_history0B6_
FNDA:0,_RNCNvMNtCs5mxsGHxdp9x_16claude_scheduler8databaseNtB4_8Database3new0B6_
FNDA:0,_RNvMNtCs5mxsGHxdp9x_16claude_scheduler8databaseNtB2_8Database10get_config
FNDA:0,_RNvMNtCs5mxsGHxdp9x_16claude_scheduler8databaseNtB2_8Database10initialize
FNDA:0,_RNvMNtCs5mxsGHxdp9x_16claude_scheduler8databaseNtB2_8Database10set_config
FNDA:0,_RNvMNtCs5mxsGHxdp9x_16claude_scheduler8databaseNtB2_8Database13get_schedules
FNDA:0,_RNvMNtCs5mxsGHxdp9x_16claude_scheduler8databaseNtB2_8Database14get_all_config
FNDA:0,_RNvMNtCs5mxsGHxdp9x_16claude_scheduler8databaseNtB2_8Database15create_schedule
FNDA:0,_RNvMNtCs5mxsGHxdp9x_16claude_scheduler8databaseNtB2_8Database21get_execution_history
FNDA:0,_RNvMNtCs5mxsGHxdp9x_16claude_scheduler8databaseNtB2_8Database22update_schedule_status
FNDA:0,_RNvMNtCs5mxsGHxdp9x_16claude_scheduler8databaseNtB2_8Database24create_execution_history
FNDA:0,_RNvMNtCs5mxsGHxdp9x_16claude_scheduler8databaseNtB2_8Database3new
FNF:26
FNH:0
DA:13,0
DA:15,0
DA:16,0
DA:17,0
DA:19,0
DA:20,0
DA:22,0
DA:23,0
DA:24,0
DA:25,0
DA:27,0
DA:29,0
DA:30,0
DA:31,0
DA:32,0
DA:33,0
DA:34,0
DA:35,0
DA:36,0
DA:37,0
DA:38,0
DA:39,0
DA:40,0
DA:41,0
DA:42,0
DA:43,0
DA:44,0
DA:45,0
DA:46,0
DA:47,0
DA:50,0
DA:51,0
DA:52,0
DA:53,0
DA:54,0
DA:55,0
DA:56,0
DA:57,0
DA:58,0
DA:59,0
DA:60,0
DA:61,0
DA:62,0
DA:63,0
DA:64,0
DA:65,0
DA:66,0
DA:67,0
DA:70,0
DA:71,0
DA:72,0
DA:73,0
DA:74,0
DA:75,0
DA:76,0
DA:77,0
DA:78,0
DA:79,0
DA:81,0
DA:82,0
DA:85,0
DA:86,0
DA:87,0
DA:88,0
DA:89,0
DA:90,0
DA:91,0
DA:92,0
DA:93,0
DA:94,0
DA:95,0
DA:96,0
DA:97,0
DA:98,0
DA:99,0
DA:100,0
DA:101,0
DA:102,0
DA:103,0
DA:104,0
DA:106,0
DA:107,0
DA:109,0
DA:110,0
DA:111,0
DA:112,0
DA:113,0
DA:114,0
DA:116,0
DA:117,0
DA:118,0
DA:120,0
DA:122,0
DA:123,0
DA:124,0
DA:126,0
DA:128,0
DA:129,0
DA:130,0
DA:131,0
DA:132,0
DA:133,0
DA:134,0
DA:135,0
DA:136,0
DA:137,0
DA:138,0
DA:139,0
DA:140,0
DA:141,0
DA:142,0
DA:143,0
DA:144,0
DA:145,0
DA:146,0
DA:147,0
DA:148,0
DA:149,0
DA:150,0
DA:151,0
DA:152,0
DA:153,0
DA:154,0
DA:155,0
DA:156,0
DA:157,0
DA:158,0
DA:160,0
DA:161,0
DA:163,0
DA:164,0
DA:165,0
DA:166,0
DA:167,0
DA:168,0
DA:169,0
DA:170,0
DA:171,0
DA:172,0
DA:174,0
DA:175,0
DA:178,0
DA:179,0
DA:180,0
DA:181,0
DA:182,0
DA:183,0
DA:184,0
DA:185,0
DA:186,0
DA:187,0
DA:188,0
DA:189,0
DA:190,0
DA:191,0
DA:192,0
DA:193,0
DA:194,0
DA:195,0
DA:196,0
DA:198,0
DA:199,0
DA:201,0
DA:202,0
DA:203,0
DA:204,0
DA:205,0
DA:206,0
DA:207,0
DA:208,0
DA:209,0
DA:210,0
DA:212,0
DA:213,0
DA:214,0
DA:216,0
DA:217,0
DA:218,0
DA:219,0
DA:220,0
DA:221,0
DA:223,0
DA:224,0
DA:225,0
DA:227,0
DA:228,0
DA:229,0
DA:230,0
DA:231,0
DA:232,0
DA:234,0
DA:235,0
DA:236,0
DA:237,0
DA:238,0
DA:239,0
DA:241,0
DA:243,0
DA:244,0
DA:245,0
DA:247,0
DA:249,0
DA:250,0
DA:251,0
DA:252,0
DA:253,0
DA:254,0
DA:255,0
DA:256,0
DA:257,0
DA:258,0
DA:259,0
DA:260,0
DA:261,0
DA:262,0
DA:263,0
DA:264,0
DA:265,0
DA:266,0
DA:267,0
DA:268,0
DA:269,0
DA:270,0
DA:271,0
DA:272,0
DA:273,0
DA:274,0
DA:275,0
DA:276,0
DA:277,0
DA:278,0
DA:279,0
DA:280,0
DA:281,0
DA:283,0
DA:284,0
DA:287,0
DA:288,0
DA:289,0
DA:290,0
DA:291,0
DA:292,0
DA:294,0
DA:295,0
DA:297,0
DA:298,0
DA:299,0
DA:300,0
DA:301,0
DA:302,0
DA:303,0
DA:304,0
DA:305,0
DA:306,0
DA:307,0
DA:309,0
DA:310,0
DA:312,0
DA:313,0
DA:314,0
DA:315,0
DA:316,0
DA:317,0
DA:319,0
DA:320,0
BRF:0
BRH:0
LF:279
LH:0
end_of_record
SF:/Users/tt/workspace/claude-scheduler/src/git.rs
FN:158,_RNCNvNtCs9tQrTLhafAq_16claude_scheduler3git17get_worktree_path0B5_
FN:139,_RNCNvNtCs9tQrTLhafAq_16claude_scheduler3git18get_current_branch0B5_
FN:149,_RNCNvNtCs9tQrTLhafAq_16claude_scheduler3git25get_current_branch_result0B5_
FN:103,_RNCNvNtCs9tQrTLhafAq_16claude_scheduler3git25get_git_worktree_branches0B5_
FN:156,_RNvNtCs9tQrTLhafAq_16claude_scheduler3git17get_worktree_path
FN:4,_RNvNtCs9tQrTLhafAq_16claude_scheduler3git17is_git_repository
FN:137,_RNvNtCs9tQrTLhafAq_16claude_scheduler3git18get_current_branch
FN:147,_RNvNtCs9tQrTLhafAq_16claude_scheduler3git25get_current_branch_result
FN:101,_RNvNtCs9tQrTLhafAq_16claude_scheduler3git25get_git_worktree_branches
FN:175,_RNvNtCs9tQrTLhafAq_16claude_scheduler3git27execute_command_in_worktree
FN:110,_RNvNtCs9tQrTLhafAq_16claude_scheduler3git31get_current_branch_in_directory
FN:23,_RNvNtCs9tQrTLhafAq_16claude_scheduler3git38get_git_worktree_branches_in_directory
FN:158,_RNCNvNtCs5mxsGHxdp9x_16claude_scheduler3git17get_worktree_path0B5_
FN:149,_RNCNvNtCs5mxsGHxdp9x_16claude_scheduler3git25get_current_branch_result0B5_
FN:103,_RNCNvNtCs5mxsGHxdp9x_16claude_scheduler3git25get_git_worktree_branches0B5_
FN:156,_RNvNtCs5mxsGHxdp9x_16claude_scheduler3git17get_worktree_path
FN:147,_RNvNtCs5mxsGHxdp9x_16claude_scheduler3git25get_current_branch_result
FN:101,_RNvNtCs5mxsGHxdp9x_16claude_scheduler3git25get_git_worktree_branches
FN:175,_RNvNtCs5mxsGHxdp9x_16claude_scheduler3git27execute_command_in_worktree
FN:23,_RNvNtCs5mxsGHxdp9x_16claude_scheduler3git38get_git_worktree_branches_in_directory
FN:4,_RNvNtCs5mxsGHxdp9x_16claude_scheduler3git17is_git_repository
FN:137,_RNvNtCs5mxsGHxdp9x_16claude_scheduler3git18get_current_branch
FN:110,_RNvNtCs5mxsGHxdp9x_16claude_scheduler3git31get_current_branch_in_directory
FN:139,_RNCNvNtCs5mxsGHxdp9x_16claude_scheduler3git18get_current_branch0B5_
FNDA:0,_RNCNvNtCs9tQrTLhafAq_16claude_scheduler3git17get_worktree_path0B5_
FNDA:0,_RNCNvNtCs9tQrTLhafAq_16claude_scheduler3git18get_current_branch0B5_
FNDA:0,_RNCNvNtCs9tQrTLhafAq_16claude_scheduler3git25get_current_branch_result0B5_
FNDA:0,_RNCNvNtCs9tQrTLhafAq_16claude_scheduler3git25get_git_worktree_branches0B5_
FNDA:0,_RNvNtCs9tQrTLhafAq_16claude_scheduler3git17get_worktree_path
FNDA:0,_RNvNtCs9tQrTLhafAq_16claude_scheduler3git17is_git_repository
FNDA:0,_RNvNtCs9tQrTLhafAq_16claude_scheduler3git18get_current_branch
FNDA:0,_RNvNtCs9tQrTLhafAq_16claude_scheduler3git25get_current_branch_result
FNDA:0,_RNvNtCs9tQrTLhafAq_16claude_scheduler3git25get_git_worktree_branches
FNDA:0,_RNvNtCs9tQrTLhafAq_16claude_scheduler3git27execute_command_in_worktree
FNDA:0,_RNvNtCs9tQrTLhafAq_16claude_scheduler3git31get_current_branch_in_directory
FNDA:0,_RNvNtCs9tQrTLhafAq_16claude_scheduler3git38get_git_worktree_branches_in_directory
FNDA:0,_RNCNvNtCs5mxsGHxdp9x_16claude_scheduler3git17get_worktree_path0B5_
FNDA:0,_RNCNvNtCs5mxsGHxdp9x_16claude_scheduler3git25get_current_branch_result0B5_
FNDA:0,_RNCNvNtCs5mxsGHxdp9x_16claude_scheduler3git25get_git_worktree_branches0B5_
FNDA:0,_RNvNtCs5mxsGHxdp9x_16claude_scheduler3git17get_worktree_path
FNDA:0,_RNvNtCs5mxsGHxdp9x_16claude_scheduler3git25get_current_branch_result
FNDA:0,_RNvNtCs5mxsGHxdp9x_16claude_scheduler3git25get_git_worktree_branches
FNDA:0,_RNvNtCs5mxsGHxdp9x_16claude_scheduler3git27execute_command_in_worktree
FNDA:0,_RNvNtCs5mxsGHxdp9x_16claude_scheduler3git38get_git_worktree_branches_in_directory
FNDA:1,_RNvNtCs5mxsGHxdp9x_16claude_scheduler3git17is_git_repository
FNDA:1,_RNvNtCs5mxsGHxdp9x_16claude_scheduler3git18get_current_branch
FNDA:1,_RNvNtCs5mxsGHxdp9x_16claude_scheduler3git31get_current_branch_in_directory
FNDA:0,_RNCNvNtCs5mxsGHxdp9x_16claude_scheduler3git18get_current_branch0B5_
FNF:12
FNH:3
DA:4,1
DA:5,1
DA:7,1
DA:8,0
DA:9,1
DA:11,1
DA:12,1
DA:13,1
DA:14,1
DA:15,1
DA:17,1
DA:18,0
DA:20,1
DA:23,0
DA:24,0
DA:26,0
DA:27,0
DA:28,0
DA:30,0
DA:31,0
DA:32,0
DA:33,0
DA:34,0
DA:35,0
DA:37,0
DA:38,0
DA:39,0
DA:41,0
DA:42,0
DA:43,0
DA:44,0
DA:45,0
DA:46,0
DA:47,0
DA:50,0
DA:52,0
DA:53,0
DA:54,0
DA:55,0
DA:56,0
DA:58,0
DA:59,0
DA:60,0
DA:61,0
DA:64,0
DA:65,0
DA:66,0
DA:67,0
DA:68,0
DA:69,0
DA:72,0
DA:73,0
DA:74,0
DA:76,0
DA:77,0
DA:78,0
DA:80,0
DA:81,0
DA:82,0
DA:85,0
DA:86,0
DA:88,0
DA:89,0
DA:90,0
DA:92,0
DA:95,0
DA:98,0
DA:101,0
DA:102,0
DA:103,0
DA:104,0
DA:105,0
DA:106,0
DA:107,0
DA:110,1
DA:111,1
DA:113,1
DA:114,0
DA:115,1
DA:117,1
DA:118,1
DA:119,1
DA:120,1
DA:121,1
DA:122,1
DA:124,1
DA:125,1
DA:126,1
DA:127,1
DA:129,0
DA:132,0
DA:134,1
DA:137,1
DA:138,1
DA:139,1
DA:140,1
DA:141,1
DA:142,1
DA:143,1
DA:147,0
DA:148,0
DA:149,0
DA:150,0
DA:151,0
DA:152,0
DA:153,0
DA:156,0
DA:157,0
DA:158,0
DA:159,0
DA:160,0
DA:162,0
DA:163,0
DA:166,0
DA:167,0
DA:170,0
DA:172,0
DA:175,0
DA:176,0
DA:177,0
DA:178,0
DA:179,0
DA:180,0
DA:181,0
DA:182,0
DA:183,0
DA:184,0
DA:187,0
DA:188,0
DA:189,0
DA:190,0
DA:191,0
DA:192,0
DA:195,0
DA:196,0
DA:197,0
DA:198,0
DA:199,0
DA:200,0
DA:203,0
DA:204,0
DA:205,0
DA:206,0
DA:207,0
DA:208,0
DA:209,0
DA:211,0
DA:212,0
DA:214,0
DA:215,0
DA:216,0
DA:217,0
DA:218,0
DA:219,0
DA:220,0
DA:221,0
DA:224,0
DA:225,0
DA:226,0
DA:227,0
DA:228,0
DA:229,0
BRF:0
BRH:0
LF:166
LH:33
end_of_record
SF:/Users/tt/workspace/claude-scheduler/src/lib.rs
FN:41,_RNvNtCs5mxsGHxdp9x_16claude_scheduler5testss_23test_git_current_branch
FN:47,_RNvNtCs5mxsGHxdp9x_16claude_scheduler5testss_23test_utils_time_reached
FN:24,_RNvNtCs5mxsGHxdp9x_16claude_scheduler5testss_27test_models_schedule_status
FN:17,_RNvNtCs5mxsGHxdp9x_16claude_scheduler5testss_27test_utils_current_datetime
FN:33,_RNvNtCs5mxsGHxdp9x_16claude_scheduler5testss_28test_models_execution_status
FN:70,_RNvNtCs5mxsGHxdp9x_16claude_scheduler5testss_31test_utils_build_scheduled_time
FNDA:1,_RNvNtCs5mxsGHxdp9x_16claude_scheduler5testss_23test_git_current_branch
FNDA:1,_RNvNtCs5mxsGHxdp9x_16claude_scheduler5testss_23test_utils_time_reached
FNDA:1,_RNvNtCs5mxsGHxdp9x_16claude_scheduler5testss_27test_models_schedule_status
FNDA:1,_RNvNtCs5mxsGHxdp9x_16claude_scheduler5testss_27test_utils_current_datetime
FNDA:1,_RNvNtCs5mxsGHxdp9x_16claude_scheduler5testss_28test_models_execution_status
FNDA:1,_RNvNtCs5mxsGHxdp9x_16claude_scheduler5testss_31test_utils_build_scheduled_time
FNF:6
FNH:6
DA:17,1
DA:18,1
DA:19,1
DA:20,1
DA:21,1
DA:24,1
DA:27,1
DA:28,1
DA:29,1
DA:30,1
DA:33,1
DA:36,1
DA:37,1
DA:38,1
DA:41,1
DA:42,1
DA:43,1
DA:44,1
DA:47,1
DA:51,1
DA:52,1
DA:53,1
DA:54,1
DA:55,1
DA:57,1
DA:60,1
DA:61,1
DA:62,1
DA:63,1
DA:64,1
DA:66,1
DA:67,1
DA:70,1
DA:71,1
DA:72,1
DA:73,1
BRF:0
BRH:0
LF:36
LH:36
end_of_record
SF:/Users/tt/workspace/claude-scheduler/src/main.rs
FN:27,_RNCNvCs9tQrTLhafAq_16claude_scheduler4main0B3_
FN:15,_RNvCs9tQrTLhafAq_16claude_scheduler4main
FNDA:0,_RNCNvCs9tQrTLhafAq_16claude_scheduler4main0B3_
FNDA:0,_RNvCs9tQrTLhafAq_16claude_scheduler4main
FNF:2
FNH:0
DA:15,0
DA:17,0
DA:19,0
DA:21,0
DA:23,0
DA:26,0
DA:27,0
DA:29,0
DA:32,0
DA:34,0
DA:36,0
DA:37,0
DA:38,0
DA:39,0
DA:40,0
DA:41,0
DA:43,0
DA:44,0
DA:45,0
DA:46,0
DA:47,0
DA:48,0
DA:49,0
DA:50,0
DA:51,0
DA:52,0
DA:55,0
DA:56,0
DA:57,0
DA:58,0
DA:59,0
DA:60,0
DA:61,0
DA:62,0
DA:63,0
DA:65,0
DA:66,0
DA:67,0
DA:68,0
DA:69,0
DA:70,0
DA:71,0
DA:72,0
DA:73,0
DA:74,0
DA:75,0
DA:76,0
DA:77,0
DA:80,0
DA:81,0
DA:82,0
DA:84,0
DA:87,0
DA:88,0
DA:89,0
DA:90,0
DA:91,0
DA:92,0
DA:93,0
DA:95,0
DA:96,0
DA:97,0
DA:98,0
DA:99,0
DA:100,0
DA:101,0
DA:102,0
DA:103,0
DA:104,0
DA:105,0
DA:108,0
DA:109,0
DA:110,0
DA:111,0
DA:112,0
DA:114,0
DA:115,0
DA:116,0
DA:117,0
DA:119,0
DA:120,0
DA:121,0
DA:122,0
DA:123,0
DA:124,0
DA:125,0
DA:126,0
DA:127,0
DA:129,0
DA:131,0
DA:132,0
DA:133,0
DA:134,0
DA:136,0
DA:137,0
DA:138,0
DA:139,0
DA:140,0
DA:141,0
DA:144,0
DA:145,0
DA:146,0
DA:150,0
DA:151,0
DA:155,0
DA:156,0
DA:157,0
DA:158,0
DA:159,0
DA:160,0
DA:161,0
DA:162,0
DA:163,0
DA:173,0
DA:174,0
BRF:0
BRH:0
LF:117
LH:0
end_of_record
SF:/Users/tt/workspace/claude-scheduler/src/models.rs
FN:71,_RNCNvXNtCs9tQrTLhafAq_16claude_scheduler6modelsNtB4_8ScheduleNtNtCsfOTgFBkE765_4core7default7Default7default0B6_
FN:120,_RNvMs2_NtCs9tQrTLhafAq_16claude_scheduler6modelsNtB5_14ScheduleStatus11from_string
FN:112,_RNvMs2_NtCs9tQrTLhafAq_16claude_scheduler6modelsNtB5_14ScheduleStatus12to_db_string
FN:140,_RNvMs3_NtCs9tQrTLhafAq_16claude_scheduler6modelsNtB5_13ExecutionType11from_string
FN:131,_RNvMs3_NtCs9tQrTLhafAq_16claude_scheduler6modelsNtB5_13ExecutionType12to_db_string
FN:159,_RNvMs4_NtCs9tQrTLhafAq_16claude_scheduler6modelsNtB5_15ExecutionStatus11from_string
FN:152,_RNvMs4_NtCs9tQrTLhafAq_16claude_scheduler6modelsNtB5_15ExecutionStatus12to_db_string
FN:60,_RNvXNtCs9tQrTLhafAq_16claude_scheduler6modelsNtB2_8ScheduleNtNtCsfOTgFBkE765_4core7default7Default7default
FN:91,_RNvXs0_NtCs9tQrTLhafAq_16claude_scheduler6modelsNtB5_13ExecutionTypeNtNtCsfOTgFBkE765_4core3fmt7Display3fmt
FN:102,_RNvXs1_NtCs9tQrTLhafAq_16claude_scheduler6modelsNtB5_15ExecutionStatusNtNtCsfOTgFBkE765_4core3fmt7Display3fmt
FN:81,_RNvXs_NtCs9tQrTLhafAq_16claude_scheduler6modelsNtB4_14ScheduleStatusNtNtCsfOTgFBkE765_4core3fmt7Display3fmt
FN:71,_RNCNvXNtCs5mxsGHxdp9x_16claude_scheduler6modelsNtB4_8ScheduleNtNtCsfOTgFBkE765_4core7default7Default7default0B6_
FN:120,_RNvMs2_NtCs5mxsGHxdp9x_16claude_scheduler6modelsNtB5_14ScheduleStatus11from_string
FN:112,_RNvMs2_NtCs5mxsGHxdp9x_16claude_scheduler6modelsNtB5_14ScheduleStatus12to_db_string
FN:140,_RNvMs3_NtCs5mxsGHxdp9x_16claude_scheduler6modelsNtB5_13ExecutionType11from_string
FN:131,_RNvMs3_NtCs5mxsGHxdp9x_16claude_scheduler6modelsNtB5_13ExecutionType12to_db_string
FN:159,_RNvMs4_NtCs5mxsGHxdp9x_16claude_scheduler6modelsNtB5_15ExecutionStatus11from_string
FN:152,_RNvMs4_NtCs5mxsGHxdp9x_16claude_scheduler6modelsNtB5_15ExecutionStatus12to_db_string
FN:60,_RNvXNtCs5mxsGHxdp9x_16claude_scheduler6modelsNtB2_8ScheduleNtNtCsfOTgFBkE765_4core7default7Default7default
FN:91,_RNvXs0_NtCs5mxsGHxdp9x_16claude_scheduler6modelsNtB5_13ExecutionTypeNtNtCsfOTgFBkE765_4core3fmt7Display3fmt
FN:102,_RNvXs1_NtCs5mxsGHxdp9x_16claude_scheduler6modelsNtB5_15ExecutionStatusNtNtCsfOTgFBkE765_4core3fmt7Display3fmt
FN:81,_RNvXs_NtCs5mxsGHxdp9x_16claude_scheduler6modelsNtB4_14ScheduleStatusNtNtCsfOTgFBkE765_4core3fmt7Display3fmt
FNDA:0,_RNCNvXNtCs9tQrTLhafAq_16claude_scheduler6modelsNtB4_8ScheduleNtNtCsfOTgFBkE765_4core7default7Default7default0B6_
FNDA:0,_RNvMs2_NtCs9tQrTLhafAq_16claude_scheduler6modelsNtB5_14ScheduleStatus11from_string
FNDA:0,_RNvMs2_NtCs9tQrTLhafAq_16claude_scheduler6modelsNtB5_14ScheduleStatus12to_db_string
FNDA:0,_RNvMs3_NtCs9tQrTLhafAq_16claude_scheduler6modelsNtB5_13ExecutionType11from_string
FNDA:0,_RNvMs3_NtCs9tQrTLhafAq_16claude_scheduler6modelsNtB5_13ExecutionType12to_db_string
FNDA:0,_RNvMs4_NtCs9tQrTLhafAq_16claude_scheduler6modelsNtB5_15ExecutionStatus11from_string
FNDA:0,_RNvMs4_NtCs9tQrTLhafAq_16claude_scheduler6modelsNtB5_15ExecutionStatus12to_db_string
FNDA:0,_RNvXNtCs9tQrTLhafAq_16claude_scheduler6modelsNtB2_8ScheduleNtNtCsfOTgFBkE765_4core7default7Default7default
FNDA:0,_RNvXs0_NtCs9tQrTLhafAq_16claude_scheduler6modelsNtB5_13ExecutionTypeNtNtCsfOTgFBkE765_4core3fmt7Display3fmt
FNDA:0,_RNvXs1_NtCs9tQrTLhafAq_16claude_scheduler6modelsNtB5_15ExecutionStatusNtNtCsfOTgFBkE765_4core3fmt7Display3fmt
FNDA:0,_RNvXs_NtCs9tQrTLhafAq_16claude_scheduler6modelsNtB4_14ScheduleStatusNtNtCsfOTgFBkE765_4core3fmt7Display3fmt
FNDA:0,_RNCNvXNtCs5mxsGHxdp9x_16claude_scheduler6modelsNtB4_8ScheduleNtNtCsfOTgFBkE765_4core7default7Default7default0B6_
FNDA:0,_RNvMs2_NtCs5mxsGHxdp9x_16claude_scheduler6modelsNtB5_14ScheduleStatus11from_string
FNDA:0,_RNvMs2_NtCs5mxsGHxdp9x_16claude_scheduler6modelsNtB5_14ScheduleStatus12to_db_string
FNDA:0,_RNvMs3_NtCs5mxsGHxdp9x_16claude_scheduler6modelsNtB5_13ExecutionType11from_string
FNDA:0,_RNvMs3_NtCs5mxsGHxdp9x_16claude_scheduler6modelsNtB5_13ExecutionType12to_db_string
FNDA:0,_RNvMs4_NtCs5mxsGHxdp9x_16claude_scheduler6modelsNtB5_15ExecutionStatus11from_string
FNDA:0,_RNvMs4_NtCs5mxsGHxdp9x_16claude_scheduler6modelsNtB5_15ExecutionStatus12to_db_string
FNDA:0,_RNvXNtCs5mxsGHxdp9x_16claude_scheduler6modelsNtB2_8ScheduleNtNtCsfOTgFBkE765_4core7default7Default7default
FNDA:0,_RNvXs0_NtCs5mxsGHxdp9x_16claude_scheduler6modelsNtB5_13ExecutionTypeNtNtCsfOTgFBkE765_4core3fmt7Display3fmt
FNDA:2,_RNvXs1_NtCs5mxsGHxdp9x_16claude_scheduler6modelsNtB5_15ExecutionStatusNtNtCsfOTgFBkE765_4core3fmt7Display3fmt
FNDA:3,_RNvXs_NtCs5mxsGHxdp9x_16claude_scheduler6modelsNtB4_14ScheduleStatusNtNtCsfOTgFBkE765_4core3fmt7Display3fmt
FNF:11
FNH:2
DA:60,0
DA:62,0
DA:63,0
DA:64,0
DA:65,0
DA:66,0
DA:67,0
DA:69,0
DA:70,0
DA:71,0
DA:72,0
DA:73,0
DA:77,0
DA:81,3
DA:82,3
DA:83,1
DA:84,1
DA:85,1
DA:87,3
DA:91,0
DA:92,0
DA:93,0
DA:94,0
DA:95,0
DA:96,0
DA:98,0
DA:102,2
DA:103,2
DA:104,1
DA:105,1
DA:107,2
DA:112,0
DA:113,0
DA:114,0
DA:115,0
DA:116,0
DA:118,0
DA:120,0
DA:121,0
DA:122,0
DA:123,0
DA:124,0
DA:125,0
DA:127,0
DA:131,0
DA:132,0
DA:133,0
DA:134,0
DA:135,0
DA:136,0
DA:138,0
DA:140,0
DA:141,0
DA:142,0
DA:143,0
DA:144,0
DA:145,0
DA:146,0
DA:148,0
DA:152,0
DA:153,0
DA:154,0
DA:155,0
DA:157,0
DA:159,0
DA:160,0
DA:161,0
DA:162,0
DA:163,0
DA:165,0
BRF:0
BRH:0
LF:71
LH:11
end_of_record
SF:/Users/tt/workspace/claude-scheduler/src/utils.rs
FN:58,_RNvNtCs9tQrTLhafAq_16claude_scheduler5utils11expand_path
FN:10,_RNvNtCs9tQrTLhafAq_16claude_scheduler5utils15is_time_reached
FN:53,_RNvNtCs9tQrTLhafAq_16claude_scheduler5utils18is_valid_directory
FN:20,_RNvNtCs9tQrTLhafAq_16claude_scheduler5utils20build_scheduled_time
FN:5,_RNvNtCs9tQrTLhafAq_16claude_scheduler5utils20get_current_datetime
FN:37,_RNvNtCs9tQrTLhafAq_16claude_scheduler5utils28execute_command_in_directory
FN:58,_RNvNtCs5mxsGHxdp9x_16claude_scheduler5utils11expand_path
FN:10,_RNvNtCs5mxsGHxdp9x_16claude_scheduler5utils15is_time_reached
FN:20,_RNvNtCs5mxsGHxdp9x_16claude_scheduler5utils20build_scheduled_time
FN:5,_RNvNtCs5mxsGHxdp9x_16claude_scheduler5utils20get_current_datetime
FN:53,_RNvNtCs5mxsGHxdp9x_16claude_scheduler5utils18is_valid_directory
FN:37,_RNvNtCs5mxsGHxdp9x_16claude_scheduler5utils28execute_command_in_directory
FNDA:0,_RNvNtCs9tQrTLhafAq_16claude_scheduler5utils11expand_path
FNDA:0,_RNvNtCs9tQrTLhafAq_16claude_scheduler5utils15is_time_reached
FNDA:0,_RNvNtCs9tQrTLhafAq_16claude_scheduler5utils18is_valid_directory
FNDA:0,_RNvNtCs9tQrTLhafAq_16claude_scheduler5utils20build_scheduled_time
FNDA:0,_RNvNtCs9tQrTLhafAq_16claude_scheduler5utils20get_current_datetime
FNDA:0,_RNvNtCs9tQrTLhafAq_16claude_scheduler5utils28execute_command_in_directory
FNDA:2,_RNvNtCs5mxsGHxdp9x_16claude_scheduler5utils11expand_path
FNDA:2,_RNvNtCs5mxsGHxdp9x_16claude_scheduler5utils15is_time_reached
FNDA:1,_RNvNtCs5mxsGHxdp9x_16claude_scheduler5utils20build_scheduled_time
FNDA:1,_RNvNtCs5mxsGHxdp9x_16claude_scheduler5utils20get_current_datetime
FNDA:0,_RNvNtCs5mxsGHxdp9x_16claude_scheduler5utils18is_valid_directory
FNDA:0,_RNvNtCs5mxsGHxdp9x_16claude_scheduler5utils28execute_command_in_directory
FNF:6
FNH:4
DA:5,1
DA:6,1
DA:7,1
DA:10,2
DA:11,2
DA:12,2
DA:13,2
DA:14,0
DA:15,0
DA:16,0
DA:17,2
DA:20,1
DA:21,1
DA:22,1
DA:23,0
DA:25,1
DA:28,1
DA:29,1
DA:30,1
DA:31,1
DA:32,1
DA:33,1
DA:34,1
DA:37,0
DA:38,0
DA:39,0
DA:40,0
DA:41,0
DA:42,0
DA:45,0
DA:46,0
DA:47,0
DA:49,0
DA:50,0
DA:53,0
DA:54,0
DA:55,0
DA:58,2
DA:59,2
DA:60,0
DA:61,0
DA:62,0
DA:63,2
DA:64,2
DA:65,2
BRF:0
BRH:0
LF:45
LH:24
end_of_record